
bin/pia_team5_debug:     file format elf64-x86-64


Disassembly of section .init:

0000000000003000 <_init>:
    3000:	f3 0f 1e fa          	endbr64
    3004:	48 83 ec 08          	sub    $0x8,%rsp
    3008:	48 8b 05 b9 9f 00 00 	mov    0x9fb9(%rip),%rax        # cfc8 <__gmon_start__>
    300f:	48 85 c0             	test   %rax,%rax
    3012:	74 02                	je     3016 <_init+0x16>
    3014:	ff d0                	call   *%rax
    3016:	48 83 c4 08          	add    $0x8,%rsp
    301a:	c3                   	ret

Disassembly of section .plt:

0000000000003020 <_ZNKSt9basic_iosIcSt11char_traitsIcEEntEv@plt-0x10>:
    3020:	ff 35 ca 9f 00 00    	push   0x9fca(%rip)        # cff0 <_GLOBAL_OFFSET_TABLE_+0x8>
    3026:	ff 25 cc 9f 00 00    	jmp    *0x9fcc(%rip)        # cff8 <_GLOBAL_OFFSET_TABLE_+0x10>
    302c:	0f 1f 40 00          	nopl   0x0(%rax)

0000000000003030 <_ZNKSt9basic_iosIcSt11char_traitsIcEEntEv@plt>:
    3030:	ff 25 ca 9f 00 00    	jmp    *0x9fca(%rip)        # d000 <_ZNKSt9basic_iosIcSt11char_traitsIcEEntEv@GLIBCXX_3.4>
    3036:	68 00 00 00 00       	push   $0x0
    303b:	e9 e0 ff ff ff       	jmp    3020 <_init+0x20>

0000000000003040 <_ZNSt14basic_ifstreamIcSt11char_traitsIcEED1Ev@plt>:
    3040:	ff 25 c2 9f 00 00    	jmp    *0x9fc2(%rip)        # d008 <_ZNSt14basic_ifstreamIcSt11char_traitsIcEED1Ev@GLIBCXX_3.4>
    3046:	68 01 00 00 00       	push   $0x1
    304b:	e9 d0 ff ff ff       	jmp    3020 <_init+0x20>

0000000000003050 <_ZSt19__throw_logic_errorPKc@plt>:
    3050:	ff 25 ba 9f 00 00    	jmp    *0x9fba(%rip)        # d010 <_ZSt19__throw_logic_errorPKc@GLIBCXX_3.4>
    3056:	68 02 00 00 00       	push   $0x2
    305b:	e9 c0 ff ff ff       	jmp    3020 <_init+0x20>

0000000000003060 <EVP_sha256@plt>:
    3060:	ff 25 b2 9f 00 00    	jmp    *0x9fb2(%rip)        # d018 <EVP_sha256@OPENSSL_3.0.0>
    3066:	68 03 00 00 00       	push   $0x3
    306b:	e9 b0 ff ff ff       	jmp    3020 <_init+0x20>

0000000000003070 <printf@plt>:
    3070:	ff 25 aa 9f 00 00    	jmp    *0x9faa(%rip)        # d020 <printf@GLIBC_2.2.5>
    3076:	68 04 00 00 00       	push   $0x4
    307b:	e9 a0 ff ff ff       	jmp    3020 <_init+0x20>

0000000000003080 <memcpy@plt>:
    3080:	ff 25 a2 9f 00 00    	jmp    *0x9fa2(%rip)        # d028 <memcpy@GLIBC_2.14>
    3086:	68 05 00 00 00       	push   $0x5
    308b:	e9 90 ff ff ff       	jmp    3020 <_init+0x20>

0000000000003090 <_ZSt17__throw_bad_allocv@plt>:
    3090:	ff 25 9a 9f 00 00    	jmp    *0x9f9a(%rip)        # d030 <_ZSt17__throw_bad_allocv@GLIBCXX_3.4>
    3096:	68 06 00 00 00       	push   $0x6
    309b:	e9 80 ff ff ff       	jmp    3020 <_init+0x20>

00000000000030a0 <_ZdlPvm@plt>:
    30a0:	ff 25 92 9f 00 00    	jmp    *0x9f92(%rip)        # d038 <_ZdlPvm@CXXABI_1.3.9>
    30a6:	68 07 00 00 00       	push   $0x7
    30ab:	e9 70 ff ff ff       	jmp    3020 <_init+0x20>

00000000000030b0 <_ZNKSt9basic_iosIcSt11char_traitsIcEE5rdbufEv@plt>:
    30b0:	ff 25 8a 9f 00 00    	jmp    *0x9f8a(%rip)        # d040 <_ZNKSt9basic_iosIcSt11char_traitsIcEE5rdbufEv@GLIBCXX_3.4>
    30b6:	68 08 00 00 00       	push   $0x8
    30bb:	e9 60 ff ff ff       	jmp    3020 <_init+0x20>

00000000000030c0 <pcap_close@plt>:
    30c0:	ff 25 82 9f 00 00    	jmp    *0x9f82(%rip)        # d048 <pcap_close>
    30c6:	68 09 00 00 00       	push   $0x9
    30cb:	e9 50 ff ff ff       	jmp    3020 <_init+0x20>

00000000000030d0 <EVP_DigestUpdate@plt>:
    30d0:	ff 25 7a 9f 00 00    	jmp    *0x9f7a(%rip)        # d050 <EVP_DigestUpdate@OPENSSL_3.0.0>
    30d6:	68 0a 00 00 00       	push   $0xa
    30db:	e9 40 ff ff ff       	jmp    3020 <_init+0x20>

00000000000030e0 <_ZNSi5tellgEv@plt>:
    30e0:	ff 25 72 9f 00 00    	jmp    *0x9f72(%rip)        # d058 <_ZNSi5tellgEv@GLIBCXX_3.4>
    30e6:	68 0b 00 00 00       	push   $0xb
    30eb:	e9 30 ff ff ff       	jmp    3020 <_init+0x20>

00000000000030f0 <_Znwm@plt>:
    30f0:	ff 25 6a 9f 00 00    	jmp    *0x9f6a(%rip)        # d060 <_Znwm@GLIBCXX_3.4>
    30f6:	68 0c 00 00 00       	push   $0xc
    30fb:	e9 20 ff ff ff       	jmp    3020 <_init+0x20>

0000000000003100 <EVP_MD_CTX_new@plt>:
    3100:	ff 25 62 9f 00 00    	jmp    *0x9f62(%rip)        # d068 <EVP_MD_CTX_new@OPENSSL_3.0.0>
    3106:	68 0d 00 00 00       	push   $0xd
    310b:	e9 10 ff ff ff       	jmp    3020 <_init+0x20>

0000000000003110 <pcap_open_live@plt>:
    3110:	ff 25 5a 9f 00 00    	jmp    *0x9f5a(%rip)        # d070 <pcap_open_live>
    3116:	68 0e 00 00 00       	push   $0xe
    311b:	e9 00 ff ff ff       	jmp    3020 <_init+0x20>

0000000000003120 <_ZSt21__glibcxx_assert_failPKciS0_S0_@plt>:
    3120:	ff 25 52 9f 00 00    	jmp    *0x9f52(%rip)        # d078 <_ZSt21__glibcxx_assert_failPKciS0_S0_@GLIBCXX_3.4.30>
    3126:	68 0f 00 00 00       	push   $0xf
    312b:	e9 f0 fe ff ff       	jmp    3020 <_init+0x20>

0000000000003130 <_ZNSt14basic_ofstreamIcSt11char_traitsIcEEC1Ev@plt>:
    3130:	ff 25 4a 9f 00 00    	jmp    *0x9f4a(%rip)        # d080 <_ZNSt14basic_ofstreamIcSt11char_traitsIcEEC1Ev@GLIBCXX_3.4>
    3136:	68 10 00 00 00       	push   $0x10
    313b:	e9 e0 fe ff ff       	jmp    3020 <_init+0x20>

0000000000003140 <pthread_mutex_unlock@plt>:
    3140:	ff 25 42 9f 00 00    	jmp    *0x9f42(%rip)        # d088 <pthread_mutex_unlock@GLIBC_2.2.5>
    3146:	68 11 00 00 00       	push   $0x11
    314b:	e9 d0 fe ff ff       	jmp    3020 <_init+0x20>

0000000000003150 <pthread_mutex_lock@plt>:
    3150:	ff 25 3a 9f 00 00    	jmp    *0x9f3a(%rip)        # d090 <pthread_mutex_lock@GLIBC_2.2.5>
    3156:	68 12 00 00 00       	push   $0x12
    315b:	e9 c0 fe ff ff       	jmp    3020 <_init+0x20>

0000000000003160 <__stack_chk_fail@plt>:
    3160:	ff 25 32 9f 00 00    	jmp    *0x9f32(%rip)        # d098 <__stack_chk_fail@GLIBC_2.4>
    3166:	68 13 00 00 00       	push   $0x13
    316b:	e9 b0 fe ff ff       	jmp    3020 <_init+0x20>

0000000000003170 <pcap_loop@plt>:
    3170:	ff 25 2a 9f 00 00    	jmp    *0x9f2a(%rip)        # d0a0 <pcap_loop>
    3176:	68 14 00 00 00       	push   $0x14
    317b:	e9 a0 fe ff ff       	jmp    3020 <_init+0x20>

0000000000003180 <_ZStlsIcSt11char_traitsIcESaIcEERSt13basic_ostreamIT_T0_ES7_RKNSt7__cxx1112basic_stringIS4_S5_T1_EE@plt>:
    3180:	ff 25 22 9f 00 00    	jmp    *0x9f22(%rip)        # d0a8 <_ZStlsIcSt11char_traitsIcESaIcEERSt13basic_ostreamIT_T0_ES7_RKNSt7__cxx1112basic_stringIS4_S5_T1_EE@GLIBCXX_3.4.21>
    3186:	68 15 00 00 00       	push   $0x15
    318b:	e9 90 fe ff ff       	jmp    3020 <_init+0x20>

0000000000003190 <_ZNSolsEi@plt>:
    3190:	ff 25 1a 9f 00 00    	jmp    *0x9f1a(%rip)        # d0b0 <_ZNSolsEi@GLIBCXX_3.4>
    3196:	68 16 00 00 00       	push   $0x16
    319b:	e9 80 fe ff ff       	jmp    3020 <_init+0x20>

00000000000031a0 <atoi@plt>:
    31a0:	ff 25 12 9f 00 00    	jmp    *0x9f12(%rip)        # d0b8 <atoi@GLIBC_2.2.5>
    31a6:	68 17 00 00 00       	push   $0x17
    31ab:	e9 70 fe ff ff       	jmp    3020 <_init+0x20>

00000000000031b0 <_ZNSi5seekgElSt12_Ios_Seekdir@plt>:
    31b0:	ff 25 0a 9f 00 00    	jmp    *0x9f0a(%rip)        # d0c0 <_ZNSi5seekgElSt12_Ios_Seekdir@GLIBCXX_3.4>
    31b6:	68 18 00 00 00       	push   $0x18
    31bb:	e9 60 fe ff ff       	jmp    3020 <_init+0x20>

00000000000031c0 <_ZNKSt9basic_iosIcSt11char_traitsIcEEcvbEv@plt>:
    31c0:	ff 25 02 9f 00 00    	jmp    *0x9f02(%rip)        # d0c8 <_ZNKSt9basic_iosIcSt11char_traitsIcEEcvbEv@GLIBCXX_3.4.21>
    31c6:	68 19 00 00 00       	push   $0x19
    31cb:	e9 50 fe ff ff       	jmp    3020 <_init+0x20>

00000000000031d0 <strlen@plt>:
    31d0:	ff 25 fa 9e 00 00    	jmp    *0x9efa(%rip)        # d0d0 <strlen@GLIBC_2.2.5>
    31d6:	68 1a 00 00 00       	push   $0x1a
    31db:	e9 40 fe ff ff       	jmp    3020 <_init+0x20>

00000000000031e0 <_ZSt20__throw_system_errori@plt>:
    31e0:	ff 25 f2 9e 00 00    	jmp    *0x9ef2(%rip)        # d0d8 <_ZSt20__throw_system_errori@GLIBCXX_3.4.11>
    31e6:	68 1b 00 00 00       	push   $0x1b
    31eb:	e9 30 fe ff ff       	jmp    3020 <_init+0x20>

00000000000031f0 <_ZSt28__throw_bad_array_new_lengthv@plt>:
    31f0:	ff 25 ea 9e 00 00    	jmp    *0x9eea(%rip)        # d0e0 <_ZSt28__throw_bad_array_new_lengthv@GLIBCXX_3.4.29>
    31f6:	68 1c 00 00 00       	push   $0x1c
    31fb:	e9 20 fe ff ff       	jmp    3020 <_init+0x20>

0000000000003200 <_ZNSt15basic_streambufIcSt11char_traitsIcEE5sgetcEv@plt>:
    3200:	ff 25 e2 9e 00 00    	jmp    *0x9ee2(%rip)        # d0e8 <_ZNSt15basic_streambufIcSt11char_traitsIcEE5sgetcEv@GLIBCXX_3.4>
    3206:	68 1d 00 00 00       	push   $0x1d
    320b:	e9 10 fe ff ff       	jmp    3020 <_init+0x20>

0000000000003210 <_ZSt7getlineIcSt11char_traitsIcESaIcEERSt13basic_istreamIT_T0_ES7_RNSt7__cxx1112basic_stringIS4_S5_T1_EE@plt>:
    3210:	ff 25 da 9e 00 00    	jmp    *0x9eda(%rip)        # d0f0 <_ZSt7getlineIcSt11char_traitsIcESaIcEERSt13basic_istreamIT_T0_ES7_RNSt7__cxx1112basic_stringIS4_S5_T1_EE@GLIBCXX_3.4.21>
    3216:	68 1e 00 00 00       	push   $0x1e
    321b:	e9 00 fe ff ff       	jmp    3020 <_init+0x20>

0000000000003220 <_ZStlsIcSt11char_traitsIcEERSt13basic_ostreamIT_T0_ES6_St5_Setw@plt>:
    3220:	ff 25 d2 9e 00 00    	jmp    *0x9ed2(%rip)        # d0f8 <_ZStlsIcSt11char_traitsIcEERSt13basic_ostreamIT_T0_ES6_St5_Setw@GLIBCXX_3.4>
    3226:	68 1f 00 00 00       	push   $0x1f
    322b:	e9 f0 fd ff ff       	jmp    3020 <_init+0x20>

0000000000003230 <EVP_MD_CTX_free@plt>:
    3230:	ff 25 ca 9e 00 00    	jmp    *0x9eca(%rip)        # d100 <EVP_MD_CTX_free@OPENSSL_3.0.0>
    3236:	68 20 00 00 00       	push   $0x20
    323b:	e9 e0 fd ff ff       	jmp    3020 <_init+0x20>

0000000000003240 <closedir@plt>:
    3240:	ff 25 c2 9e 00 00    	jmp    *0x9ec2(%rip)        # d108 <closedir@GLIBC_2.2.5>
    3246:	68 21 00 00 00       	push   $0x21
    324b:	e9 d0 fd ff ff       	jmp    3020 <_init+0x20>

0000000000003250 <_ZStlsISt11char_traitsIcEERSt13basic_ostreamIcT_ES5_PKc@plt>:
    3250:	ff 25 ba 9e 00 00    	jmp    *0x9eba(%rip)        # d110 <_ZStlsISt11char_traitsIcEERSt13basic_ostreamIcT_ES5_PKc@GLIBCXX_3.4>
    3256:	68 22 00 00 00       	push   $0x22
    325b:	e9 c0 fd ff ff       	jmp    3020 <_init+0x20>

0000000000003260 <opendir@plt>:
    3260:	ff 25 b2 9e 00 00    	jmp    *0x9eb2(%rip)        # d118 <opendir@GLIBC_2.2.5>
    3266:	68 23 00 00 00       	push   $0x23
    326b:	e9 b0 fd ff ff       	jmp    3020 <_init+0x20>

0000000000003270 <_ZSt20__throw_length_errorPKc@plt>:
    3270:	ff 25 aa 9e 00 00    	jmp    *0x9eaa(%rip)        # d120 <_ZSt20__throw_length_errorPKc@GLIBCXX_3.4>
    3276:	68 24 00 00 00       	push   $0x24
    327b:	e9 a0 fd ff ff       	jmp    3020 <_init+0x20>

0000000000003280 <_Unwind_Resume@plt>:
    3280:	ff 25 a2 9e 00 00    	jmp    *0x9ea2(%rip)        # d128 <_Unwind_Resume@GCC_3.0>
    3286:	68 25 00 00 00       	push   $0x25
    328b:	e9 90 fd ff ff       	jmp    3020 <_init+0x20>

0000000000003290 <_ZNSt14basic_ofstreamIcSt11char_traitsIcEE4openERKNSt7__cxx1112basic_stringIcS1_SaIcEEESt13_Ios_Openmode@plt>:
    3290:	ff 25 9a 9e 00 00    	jmp    *0x9e9a(%rip)        # d130 <_ZNSt14basic_ofstreamIcSt11char_traitsIcEE4openERKNSt7__cxx1112basic_stringIcS1_SaIcEEESt13_Ios_Openmode@GLIBCXX_3.4.21>
    3296:	68 26 00 00 00       	push   $0x26
    329b:	e9 80 fd ff ff       	jmp    3020 <_init+0x20>

00000000000032a0 <_ZNSt6chrono3_V212system_clock3nowEv@plt>:
    32a0:	ff 25 92 9e 00 00    	jmp    *0x9e92(%rip)        # d138 <_ZNSt6chrono3_V212system_clock3nowEv@GLIBCXX_3.4.19>
    32a6:	68 27 00 00 00       	push   $0x27
    32ab:	e9 70 fd ff ff       	jmp    3020 <_init+0x20>

00000000000032b0 <_ZStlsIcSt11char_traitsIcEERSt13basic_ostreamIT_T0_ES6_St8_SetfillIS3_E@plt>:
    32b0:	ff 25 8a 9e 00 00    	jmp    *0x9e8a(%rip)        # d140 <_ZStlsIcSt11char_traitsIcEERSt13basic_ostreamIT_T0_ES6_St8_SetfillIS3_E@GLIBCXX_3.4>
    32b6:	68 28 00 00 00       	push   $0x28
    32bb:	e9 60 fd ff ff       	jmp    3020 <_init+0x20>

00000000000032c0 <readdir@plt>:
    32c0:	ff 25 82 9e 00 00    	jmp    *0x9e82(%rip)        # d148 <readdir@GLIBC_2.2.5>
    32c6:	68 29 00 00 00       	push   $0x29
    32cb:	e9 50 fd ff ff       	jmp    3020 <_init+0x20>

00000000000032d0 <_ZNSt14basic_ofstreamIcSt11char_traitsIcEED1Ev@plt>:
    32d0:	ff 25 7a 9e 00 00    	jmp    *0x9e7a(%rip)        # d150 <_ZNSt14basic_ofstreamIcSt11char_traitsIcEED1Ev@GLIBCXX_3.4>
    32d6:	68 2a 00 00 00       	push   $0x2a
    32db:	e9 40 fd ff ff       	jmp    3020 <_init+0x20>

00000000000032e0 <_ZNSt14basic_ofstreamIcSt11char_traitsIcEE7is_openEv@plt>:
    32e0:	ff 25 72 9e 00 00    	jmp    *0x9e72(%rip)        # d158 <_ZNSt14basic_ofstreamIcSt11char_traitsIcEE7is_openEv@GLIBCXX_3.4>
    32e6:	68 2b 00 00 00       	push   $0x2b
    32eb:	e9 30 fd ff ff       	jmp    3020 <_init+0x20>

00000000000032f0 <_ZNSt15basic_streambufIcSt11char_traitsIcEE6sbumpcEv@plt>:
    32f0:	ff 25 6a 9e 00 00    	jmp    *0x9e6a(%rip)        # d160 <_ZNSt15basic_streambufIcSt11char_traitsIcEE6sbumpcEv@GLIBCXX_3.4>
    32f6:	68 2c 00 00 00       	push   $0x2c
    32fb:	e9 20 fd ff ff       	jmp    3020 <_init+0x20>

0000000000003300 <_ZNSolsEj@plt>:
    3300:	ff 25 62 9e 00 00    	jmp    *0x9e62(%rip)        # d168 <_ZNSolsEj@GLIBCXX_3.4>
    3306:	68 2d 00 00 00       	push   $0x2d
    330b:	e9 10 fd ff ff       	jmp    3020 <_init+0x20>

0000000000003310 <_ZNSt7__cxx1119basic_ostringstreamIcSt11char_traitsIcESaIcEED1Ev@plt>:
    3310:	ff 25 5a 9e 00 00    	jmp    *0x9e5a(%rip)        # d170 <_ZNSt7__cxx1119basic_ostringstreamIcSt11char_traitsIcESaIcEED1Ev@GLIBCXX_3.4.21>
    3316:	68 2e 00 00 00       	push   $0x2e
    331b:	e9 00 fd ff ff       	jmp    3020 <_init+0x20>

0000000000003320 <EVP_DigestInit_ex@plt>:
    3320:	ff 25 52 9e 00 00    	jmp    *0x9e52(%rip)        # d178 <EVP_DigestInit_ex@OPENSSL_3.0.0>
    3326:	68 2f 00 00 00       	push   $0x2f
    332b:	e9 f0 fc ff ff       	jmp    3020 <_init+0x20>

0000000000003330 <_ZNSt14basic_ofstreamIcSt11char_traitsIcEE5closeEv@plt>:
    3330:	ff 25 4a 9e 00 00    	jmp    *0x9e4a(%rip)        # d180 <_ZNSt14basic_ofstreamIcSt11char_traitsIcEE5closeEv@GLIBCXX_3.4>
    3336:	68 30 00 00 00       	push   $0x30
    333b:	e9 e0 fc ff ff       	jmp    3020 <_init+0x20>

0000000000003340 <_ZNSt7__cxx1119basic_ostringstreamIcSt11char_traitsIcESaIcEEC1Ev@plt>:
    3340:	ff 25 42 9e 00 00    	jmp    *0x9e42(%rip)        # d188 <_ZNSt7__cxx1119basic_ostringstreamIcSt11char_traitsIcESaIcEEC1Ev@GLIBCXX_3.4.26>
    3346:	68 31 00 00 00       	push   $0x31
    334b:	e9 d0 fc ff ff       	jmp    3020 <_init+0x20>

0000000000003350 <ctime@plt>:
    3350:	ff 25 3a 9e 00 00    	jmp    *0x9e3a(%rip)        # d190 <ctime@GLIBC_2.2.5>
    3356:	68 32 00 00 00       	push   $0x32
    335b:	e9 c0 fc ff ff       	jmp    3020 <_init+0x20>

0000000000003360 <_ZNSolsEPFRSoS_E@plt>:
    3360:	ff 25 32 9e 00 00    	jmp    *0x9e32(%rip)        # d198 <_ZNSolsEPFRSoS_E@GLIBCXX_3.4>
    3366:	68 33 00 00 00       	push   $0x33
    336b:	e9 b0 fc ff ff       	jmp    3020 <_init+0x20>

0000000000003370 <pcap_geterr@plt>:
    3370:	ff 25 2a 9e 00 00    	jmp    *0x9e2a(%rip)        # d1a0 <pcap_geterr>
    3376:	68 34 00 00 00       	push   $0x34
    337b:	e9 a0 fc ff ff       	jmp    3020 <_init+0x20>

0000000000003380 <_ZNSt14basic_ifstreamIcSt11char_traitsIcEEC1ERKNSt7__cxx1112basic_stringIcS1_SaIcEEESt13_Ios_Openmode@plt>:
    3380:	ff 25 22 9e 00 00    	jmp    *0x9e22(%rip)        # d1a8 <_ZNSt14basic_ifstreamIcSt11char_traitsIcEEC1ERKNSt7__cxx1112basic_stringIcS1_SaIcEEESt13_Ios_Openmode@GLIBCXX_3.4.21>
    3386:	68 35 00 00 00       	push   $0x35
    338b:	e9 90 fc ff ff       	jmp    3020 <_init+0x20>

0000000000003390 <memcmp@plt>:
    3390:	ff 25 1a 9e 00 00    	jmp    *0x9e1a(%rip)        # d1b0 <memcmp@GLIBC_2.2.5>
    3396:	68 36 00 00 00       	push   $0x36
    339b:	e9 80 fc ff ff       	jmp    3020 <_init+0x20>

00000000000033a0 <putchar@plt>:
    33a0:	ff 25 12 9e 00 00    	jmp    *0x9e12(%rip)        # d1b8 <putchar@GLIBC_2.2.5>
    33a6:	68 37 00 00 00       	push   $0x37
    33ab:	e9 70 fc ff ff       	jmp    3020 <_init+0x20>

00000000000033b0 <_ZNKSt7__cxx1119basic_ostringstreamIcSt11char_traitsIcESaIcEE3strEv@plt>:
    33b0:	ff 25 0a 9e 00 00    	jmp    *0x9e0a(%rip)        # d1c0 <_ZNKSt7__cxx1119basic_ostringstreamIcSt11char_traitsIcESaIcEE3strEv@GLIBCXX_3.4.21>
    33b6:	68 38 00 00 00       	push   $0x38
    33bb:	e9 60 fc ff ff       	jmp    3020 <_init+0x20>

00000000000033c0 <EVP_DigestFinal_ex@plt>:
    33c0:	ff 25 02 9e 00 00    	jmp    *0x9e02(%rip)        # d1c8 <EVP_DigestFinal_ex@OPENSSL_3.0.0>
    33c6:	68 39 00 00 00       	push   $0x39
    33cb:	e9 50 fc ff ff       	jmp    3020 <_init+0x20>

00000000000033d0 <_ZNSolsEPFRSt8ios_baseS0_E@plt>:
    33d0:	ff 25 fa 9d 00 00    	jmp    *0x9dfa(%rip)        # d1d0 <_ZNSolsEPFRSt8ios_baseS0_E@GLIBCXX_3.4>
    33d6:	68 3a 00 00 00       	push   $0x3a
    33db:	e9 40 fc ff ff       	jmp    3020 <_init+0x20>

Disassembly of section .text:

00000000000033e0 <_start>:
    33e0:	f3 0f 1e fa          	endbr64
    33e4:	31 ed                	xor    %ebp,%ebp
    33e6:	49 89 d1             	mov    %rdx,%r9
    33e9:	5e                   	pop    %rsi
    33ea:	48 89 e2             	mov    %rsp,%rdx
    33ed:	48 83 e4 f0          	and    $0xfffffffffffffff0,%rsp
    33f1:	50                   	push   %rax
    33f2:	54                   	push   %rsp
    33f3:	45 31 c0             	xor    %r8d,%r8d
    33f6:	31 c9                	xor    %ecx,%ecx
    33f8:	48 8d 3d da 00 00 00 	lea    0xda(%rip),%rdi        # 34d9 <main>
    33ff:	ff 15 db 9b 00 00    	call   *0x9bdb(%rip)        # cfe0 <__libc_start_main@GLIBC_2.34>
    3405:	f4                   	hlt
    3406:	66 2e 0f 1f 84 00 00 	cs nopw 0x0(%rax,%rax,1)
    340d:	00 00 00 

0000000000003410 <deregister_tm_clones>:
    3410:	48 8d 3d d9 9d 00 00 	lea    0x9dd9(%rip),%rdi        # d1f0 <__TMC_END__>
    3417:	48 8d 05 d2 9d 00 00 	lea    0x9dd2(%rip),%rax        # d1f0 <__TMC_END__>
    341e:	48 39 f8             	cmp    %rdi,%rax
    3421:	74 15                	je     3438 <deregister_tm_clones+0x28>
    3423:	48 8b 05 8e 9b 00 00 	mov    0x9b8e(%rip),%rax        # cfb8 <_ITM_deregisterTMCloneTable>
    342a:	48 85 c0             	test   %rax,%rax
    342d:	74 09                	je     3438 <deregister_tm_clones+0x28>
    342f:	ff e0                	jmp    *%rax
    3431:	0f 1f 80 00 00 00 00 	nopl   0x0(%rax)
    3438:	c3                   	ret
    3439:	0f 1f 80 00 00 00 00 	nopl   0x0(%rax)

0000000000003440 <register_tm_clones>:
    3440:	48 8d 3d a9 9d 00 00 	lea    0x9da9(%rip),%rdi        # d1f0 <__TMC_END__>
    3447:	48 8d 35 a2 9d 00 00 	lea    0x9da2(%rip),%rsi        # d1f0 <__TMC_END__>
    344e:	48 29 fe             	sub    %rdi,%rsi
    3451:	48 89 f0             	mov    %rsi,%rax
    3454:	48 c1 ee 3f          	shr    $0x3f,%rsi
    3458:	48 c1 f8 03          	sar    $0x3,%rax
    345c:	48 01 c6             	add    %rax,%rsi
    345f:	48 d1 fe             	sar    $1,%rsi
    3462:	74 14                	je     3478 <register_tm_clones+0x38>
    3464:	48 8b 05 6d 9b 00 00 	mov    0x9b6d(%rip),%rax        # cfd8 <_ITM_registerTMCloneTable>
    346b:	48 85 c0             	test   %rax,%rax
    346e:	74 08                	je     3478 <register_tm_clones+0x38>
    3470:	ff e0                	jmp    *%rax
    3472:	66 0f 1f 44 00 00    	nopw   0x0(%rax,%rax,1)
    3478:	c3                   	ret
    3479:	0f 1f 80 00 00 00 00 	nopl   0x0(%rax)

0000000000003480 <__do_global_dtors_aux>:
    3480:	f3 0f 1e fa          	endbr64
    3484:	80 3d a5 9f 00 00 00 	cmpb   $0x0,0x9fa5(%rip)        # d430 <completed.0>
    348b:	75 33                	jne    34c0 <__do_global_dtors_aux+0x40>
    348d:	55                   	push   %rbp
    348e:	48 83 3d 2a 9b 00 00 	cmpq   $0x0,0x9b2a(%rip)        # cfc0 <__cxa_finalize@GLIBC_2.2.5>
    3495:	00 
    3496:	48 89 e5             	mov    %rsp,%rbp
    3499:	74 0d                	je     34a8 <__do_global_dtors_aux+0x28>
    349b:	48 8b 3d 3e 9d 00 00 	mov    0x9d3e(%rip),%rdi        # d1e0 <__dso_handle>
    34a2:	ff 15 18 9b 00 00    	call   *0x9b18(%rip)        # cfc0 <__cxa_finalize@GLIBC_2.2.5>
    34a8:	e8 63 ff ff ff       	call   3410 <deregister_tm_clones>
    34ad:	c6 05 7c 9f 00 00 01 	movb   $0x1,0x9f7c(%rip)        # d430 <completed.0>
    34b4:	5d                   	pop    %rbp
    34b5:	c3                   	ret
    34b6:	66 2e 0f 1f 84 00 00 	cs nopw 0x0(%rax,%rax,1)
    34bd:	00 00 00 
    34c0:	c3                   	ret
    34c1:	0f 1f 40 00          	nopl   0x0(%rax)
    34c5:	66 66 2e 0f 1f 84 00 	data16 cs nopw 0x0(%rax,%rax,1)
    34cc:	00 00 00 00 

00000000000034d0 <frame_dummy>:
    34d0:	f3 0f 1e fa          	endbr64
    34d4:	e9 67 ff ff ff       	jmp    3440 <register_tm_clones>

00000000000034d9 <main>:
    34d9:	55                   	push   %rbp
    34da:	48 89 e5             	mov    %rsp,%rbp
    34dd:	53                   	push   %rbx
    34de:	48 81 ec a8 03 00 00 	sub    $0x3a8,%rsp
    34e5:	89 bd 5c fc ff ff    	mov    %edi,-0x3a4(%rbp)
    34eb:	48 89 b5 50 fc ff ff 	mov    %rsi,-0x3b0(%rbp)
    34f2:	64 48 8b 04 25 28 00 	mov    %fs:0x28,%rax
    34f9:	00 00 
    34fb:	48 89 45 e8          	mov    %rax,-0x18(%rbp)
    34ff:	31 c0                	xor    %eax,%eax
    3501:	48 8d 85 e0 fc ff ff 	lea    -0x320(%rbp),%rax
    3508:	48 89 85 90 fc ff ff 	mov    %rax,-0x370(%rbp)
    350f:	90                   	nop
    3510:	90                   	nop
    3511:	48 8d 95 e0 fc ff ff 	lea    -0x320(%rbp),%rdx
    3518:	48 8d 0d e9 5a 00 00 	lea    0x5ae9(%rip),%rcx        # 9008 <_IO_stdin_used+0x8>
    351f:	48 8d 85 a0 fd ff ff 	lea    -0x260(%rbp),%rax
    3526:	48 89 ce             	mov    %rcx,%rsi
    3529:	48 89 c7             	mov    %rax,%rdi
    352c:	e8 c3 0c 00 00       	call   41f4 <_ZNSt7__cxx1112basic_stringIcSt11char_traitsIcESaIcEEC1IS3_EEPKcRKS3_>
    3531:	48 8d 95 a0 fd ff ff 	lea    -0x260(%rbp),%rdx
    3538:	48 8d 85 c0 fd ff ff 	lea    -0x240(%rbp),%rax
    353f:	48 89 d6             	mov    %rdx,%rsi
    3542:	48 89 c7             	mov    %rax,%rdi
    3545:	e8 0a 39 00 00       	call   6e54 <_ZN6LoggerC1ERKNSt7__cxx1112basic_stringIcSt11char_traitsIcESaIcEEE>
    354a:	48 8d 85 a0 fd ff ff 	lea    -0x260(%rbp),%rax
    3551:	48 89 c7             	mov    %rax,%rdi
    3554:	e8 53 0b 00 00       	call   40ac <_ZNSt7__cxx1112basic_stringIcSt11char_traitsIcESaIcEED1Ev>
    3559:	48 8d 85 e0 fc ff ff 	lea    -0x320(%rbp),%rax
    3560:	48 89 c7             	mov    %rax,%rdi
    3563:	e8 26 13 00 00       	call   488e <_ZNSt15__new_allocatorIcED1Ev>
    3568:	90                   	nop
    3569:	83 bd 5c fc ff ff 01 	cmpl   $0x1,-0x3a4(%rbp)
    3570:	7f 23                	jg     3595 <main+0xbc>
    3572:	48 8d 15 9f 5a 00 00 	lea    0x5a9f(%rip),%rdx        # 9018 <_IO_stdin_used+0x18>
    3579:	48 8d 05 80 9c 00 00 	lea    0x9c80(%rip),%rax        # d200 <_ZSt4cout@GLIBCXX_3.4>
    3580:	48 89 d6             	mov    %rdx,%rsi
    3583:	48 89 c7             	mov    %rax,%rdi
    3586:	e8 c5 fc ff ff       	call   3250 <_ZStlsISt11char_traitsIcEERSt13basic_ostreamIcT_ES5_PKc@plt>
    358b:	bb 01 00 00 00       	mov    $0x1,%ebx
    3590:	e9 94 06 00 00       	jmp    3c29 <main+0x750>
    3595:	48 8d 85 e0 fc ff ff 	lea    -0x320(%rbp),%rax
    359c:	48 89 85 98 fc ff ff 	mov    %rax,-0x368(%rbp)
    35a3:	90                   	nop
    35a4:	90                   	nop
    35a5:	48 8b 85 50 fc ff ff 	mov    -0x3b0(%rbp),%rax
    35ac:	48 83 c0 08          	add    $0x8,%rax
    35b0:	48 8b 08             	mov    (%rax),%rcx
    35b3:	48 8d 95 e0 fc ff ff 	lea    -0x320(%rbp),%rdx
    35ba:	48 8d 85 00 fd ff ff 	lea    -0x300(%rbp),%rax
    35c1:	48 89 ce             	mov    %rcx,%rsi
    35c4:	48 89 c7             	mov    %rax,%rdi
    35c7:	e8 28 0c 00 00       	call   41f4 <_ZNSt7__cxx1112basic_stringIcSt11char_traitsIcESaIcEEC1IS3_EEPKcRKS3_>
    35cc:	48 8d 85 e0 fc ff ff 	lea    -0x320(%rbp),%rax
    35d3:	48 89 c7             	mov    %rax,%rdi
    35d6:	e8 b3 12 00 00       	call   488e <_ZNSt15__new_allocatorIcED1Ev>
    35db:	90                   	nop
    35dc:	48 8d 15 92 5a 00 00 	lea    0x5a92(%rip),%rdx        # 9075 <_IO_stdin_used+0x75>
    35e3:	48 8d 85 00 fd ff ff 	lea    -0x300(%rbp),%rax
    35ea:	48 89 d6             	mov    %rdx,%rsi
    35ed:	48 89 c7             	mov    %rax,%rdi
    35f0:	e8 9f 0c 00 00       	call   4294 <_ZSteqIcSt11char_traitsIcESaIcEEbRKNSt7__cxx1112basic_stringIT_T0_T1_EEPKS5_>
    35f5:	84 c0                	test   %al,%al
    35f7:	74 77                	je     3670 <main+0x197>
    35f9:	48 8d 15 7a 5a 00 00 	lea    0x5a7a(%rip),%rdx        # 907a <_IO_stdin_used+0x7a>
    3600:	48 8d 05 f9 9b 00 00 	lea    0x9bf9(%rip),%rax        # d200 <_ZSt4cout@GLIBCXX_3.4>
    3607:	48 89 d6             	mov    %rdx,%rsi
    360a:	48 89 c7             	mov    %rax,%rdi
    360d:	e8 3e fc ff ff       	call   3250 <_ZStlsISt11char_traitsIcEERSt13basic_ostreamIcT_ES5_PKc@plt>
    3612:	48 89 c2             	mov    %rax,%rdx
    3615:	48 8d 05 6c 5a 00 00 	lea    0x5a6c(%rip),%rax        # 9088 <_IO_stdin_used+0x88>
    361c:	48 89 c6             	mov    %rax,%rsi
    361f:	48 89 d7             	mov    %rdx,%rdi
    3622:	e8 29 fc ff ff       	call   3250 <_ZStlsISt11char_traitsIcEERSt13basic_ostreamIcT_ES5_PKc@plt>
    3627:	48 89 c2             	mov    %rax,%rdx
    362a:	48 8d 05 8f 5a 00 00 	lea    0x5a8f(%rip),%rax        # 90c0 <_IO_stdin_used+0xc0>
    3631:	48 89 c6             	mov    %rax,%rsi
    3634:	48 89 d7             	mov    %rdx,%rdi
    3637:	e8 14 fc ff ff       	call   3250 <_ZStlsISt11char_traitsIcEERSt13basic_ostreamIcT_ES5_PKc@plt>
    363c:	48 89 c2             	mov    %rax,%rdx
    363f:	48 8d 05 ca 5a 00 00 	lea    0x5aca(%rip),%rax        # 9110 <_IO_stdin_used+0x110>
    3646:	48 89 c6             	mov    %rax,%rsi
    3649:	48 89 d7             	mov    %rdx,%rdi
    364c:	e8 ff fb ff ff       	call   3250 <_ZStlsISt11char_traitsIcEERSt13basic_ostreamIcT_ES5_PKc@plt>
    3651:	48 89 c2             	mov    %rax,%rdx
    3654:	48 8d 05 ed 5a 00 00 	lea    0x5aed(%rip),%rax        # 9148 <_IO_stdin_used+0x148>
    365b:	48 89 c6             	mov    %rax,%rsi
    365e:	48 89 d7             	mov    %rdx,%rdi
    3661:	e8 ea fb ff ff       	call   3250 <_ZStlsISt11char_traitsIcEERSt13basic_ostreamIcT_ES5_PKc@plt>
    3666:	bb 00 00 00 00       	mov    $0x0,%ebx
    366b:	e9 aa 05 00 00       	jmp    3c1a <main+0x741>
    3670:	48 8d 15 fa 5a 00 00 	lea    0x5afa(%rip),%rdx        # 9171 <_IO_stdin_used+0x171>
    3677:	48 8d 85 00 fd ff ff 	lea    -0x300(%rbp),%rax
    367e:	48 89 d6             	mov    %rdx,%rsi
    3681:	48 89 c7             	mov    %rax,%rdi
    3684:	e8 0b 0c 00 00       	call   4294 <_ZSteqIcSt11char_traitsIcESaIcEEbRKNSt7__cxx1112basic_stringIT_T0_T1_EEPKS5_>
    3689:	84 c0                	test   %al,%al
    368b:	0f 84 0e 02 00 00    	je     389f <main+0x3c6>
    3691:	83 bd 5c fc ff ff 02 	cmpl   $0x2,-0x3a4(%rbp)
    3698:	7f 72                	jg     370c <main+0x233>
    369a:	48 8d 85 e0 fc ff ff 	lea    -0x320(%rbp),%rax
    36a1:	48 89 85 a0 fc ff ff 	mov    %rax,-0x360(%rbp)
    36a8:	90                   	nop
    36a9:	90                   	nop
    36aa:	48 8d 95 e0 fc ff ff 	lea    -0x320(%rbp),%rdx
    36b1:	48 8d 0d be 5a 00 00 	lea    0x5abe(%rip),%rcx        # 9176 <_IO_stdin_used+0x176>
    36b8:	48 8d 85 a0 fd ff ff 	lea    -0x260(%rbp),%rax
    36bf:	48 89 ce             	mov    %rcx,%rsi
    36c2:	48 89 c7             	mov    %rax,%rdi
    36c5:	e8 2a 0b 00 00       	call   41f4 <_ZNSt7__cxx1112basic_stringIcSt11char_traitsIcESaIcEEC1IS3_EEPKcRKS3_>
    36ca:	48 8d 95 a0 fd ff ff 	lea    -0x260(%rbp),%rdx
    36d1:	48 8d 85 c0 fd ff ff 	lea    -0x240(%rbp),%rax
    36d8:	48 89 d6             	mov    %rdx,%rsi
    36db:	48 89 c7             	mov    %rax,%rdi
    36de:	e8 bb 39 00 00       	call   709e <_ZN6Logger5errorERKNSt7__cxx1112basic_stringIcSt11char_traitsIcESaIcEEE>
    36e3:	48 8d 85 a0 fd ff ff 	lea    -0x260(%rbp),%rax
    36ea:	48 89 c7             	mov    %rax,%rdi
    36ed:	e8 ba 09 00 00       	call   40ac <_ZNSt7__cxx1112basic_stringIcSt11char_traitsIcESaIcEED1Ev>
    36f2:	48 8d 85 e0 fc ff ff 	lea    -0x320(%rbp),%rax
    36f9:	48 89 c7             	mov    %rax,%rdi
    36fc:	e8 8d 11 00 00       	call   488e <_ZNSt15__new_allocatorIcED1Ev>
    3701:	90                   	nop
    3702:	bb 02 00 00 00       	mov    $0x2,%ebx
    3707:	e9 0e 05 00 00       	jmp    3c1a <main+0x741>
    370c:	48 8d 85 e0 fc ff ff 	lea    -0x320(%rbp),%rax
    3713:	48 89 85 a8 fc ff ff 	mov    %rax,-0x358(%rbp)
    371a:	90                   	nop
    371b:	90                   	nop
    371c:	48 8b 85 50 fc ff ff 	mov    -0x3b0(%rbp),%rax
    3723:	48 83 c0 10          	add    $0x10,%rax
    3727:	48 8b 08             	mov    (%rax),%rcx
    372a:	48 8d 95 e0 fc ff ff 	lea    -0x320(%rbp),%rdx
    3731:	48 8d 85 20 fd ff ff 	lea    -0x2e0(%rbp),%rax
    3738:	48 89 ce             	mov    %rcx,%rsi
    373b:	48 89 c7             	mov    %rax,%rdi
    373e:	e8 b1 0a 00 00       	call   41f4 <_ZNSt7__cxx1112basic_stringIcSt11char_traitsIcESaIcEEC1IS3_EEPKcRKS3_>
    3743:	48 8d 85 e0 fc ff ff 	lea    -0x320(%rbp),%rax
    374a:	48 89 c7             	mov    %rax,%rdi
    374d:	e8 3c 11 00 00       	call   488e <_ZNSt15__new_allocatorIcED1Ev>
    3752:	90                   	nop
    3753:	48 8d 85 40 fd ff ff 	lea    -0x2c0(%rbp),%rax
    375a:	48 8d 95 20 fd ff ff 	lea    -0x2e0(%rbp),%rdx
    3761:	48 89 d6             	mov    %rdx,%rsi
    3764:	48 89 c7             	mov    %rax,%rdi
    3767:	e8 33 34 00 00       	call   6b9f <_Z12hashFromFileRKNSt7__cxx1112basic_stringIcSt11char_traitsIcESaIcEEE>
    376c:	48 8d 85 40 fd ff ff 	lea    -0x2c0(%rbp),%rax
    3773:	48 89 c7             	mov    %rax,%rdi
    3776:	e8 91 0b 00 00       	call   430c <_ZNKSt7__cxx1112basic_stringIcSt11char_traitsIcESaIcEE5emptyEv>
    377b:	84 c0                	test   %al,%al
    377d:	74 52                	je     37d1 <main+0x2f8>
    377f:	48 8d 85 a0 fd ff ff 	lea    -0x260(%rbp),%rax
    3786:	48 8d 95 20 fd ff ff 	lea    -0x2e0(%rbp),%rdx
    378d:	48 8d 0d fc 59 00 00 	lea    0x59fc(%rip),%rcx        # 9190 <_IO_stdin_used+0x190>
    3794:	48 89 ce             	mov    %rcx,%rsi
    3797:	48 89 c7             	mov    %rax,%rdi
    379a:	e8 85 0b 00 00       	call   4324 <_ZStplIcSt11char_traitsIcESaIcEENSt7__cxx1112basic_stringIT_T0_T1_EEPKS5_RKS8_>
    379f:	48 8d 95 a0 fd ff ff 	lea    -0x260(%rbp),%rdx
    37a6:	48 8d 85 c0 fd ff ff 	lea    -0x240(%rbp),%rax
    37ad:	48 89 d6             	mov    %rdx,%rsi
    37b0:	48 89 c7             	mov    %rax,%rdi
    37b3:	e8 e6 38 00 00       	call   709e <_ZN6Logger5errorERKNSt7__cxx1112basic_stringIcSt11char_traitsIcESaIcEEE>
    37b8:	48 8d 85 a0 fd ff ff 	lea    -0x260(%rbp),%rax
    37bf:	48 89 c7             	mov    %rax,%rdi
    37c2:	e8 e5 08 00 00       	call   40ac <_ZNSt7__cxx1112basic_stringIcSt11char_traitsIcESaIcEED1Ev>
    37c7:	bb 03 00 00 00       	mov    $0x3,%ebx
    37cc:	e9 ab 00 00 00       	jmp    387c <main+0x3a3>
    37d1:	48 8d 85 60 fd ff ff 	lea    -0x2a0(%rbp),%rax
    37d8:	48 8d 95 20 fd ff ff 	lea    -0x2e0(%rbp),%rdx
    37df:	48 8d 0d c8 59 00 00 	lea    0x59c8(%rip),%rcx        # 91ae <_IO_stdin_used+0x1ae>
    37e6:	48 89 ce             	mov    %rcx,%rsi
    37e9:	48 89 c7             	mov    %rax,%rdi
    37ec:	e8 33 0b 00 00       	call   4324 <_ZStplIcSt11char_traitsIcESaIcEENSt7__cxx1112basic_stringIT_T0_T1_EEPKS5_RKS8_>
    37f1:	48 8d 85 80 fd ff ff 	lea    -0x280(%rbp),%rax
    37f8:	48 8d 15 b7 59 00 00 	lea    0x59b7(%rip),%rdx        # 91b6 <_IO_stdin_used+0x1b6>
    37ff:	48 8d 8d 60 fd ff ff 	lea    -0x2a0(%rbp),%rcx
    3806:	48 89 ce             	mov    %rcx,%rsi
    3809:	48 89 c7             	mov    %rax,%rdi
    380c:	e8 f7 0b 00 00       	call   4408 <_ZStplIcSt11char_traitsIcESaIcEENSt7__cxx1112basic_stringIT_T0_T1_EEOS8_PKS5_>
    3811:	48 8d 85 a0 fd ff ff 	lea    -0x260(%rbp),%rax
    3818:	48 8d 95 40 fd ff ff 	lea    -0x2c0(%rbp),%rdx
    381f:	48 8d 8d 80 fd ff ff 	lea    -0x280(%rbp),%rcx
    3826:	48 89 ce             	mov    %rcx,%rsi
    3829:	48 89 c7             	mov    %rax,%rdi
    382c:	e8 1b 0c 00 00       	call   444c <_ZStplIcSt11char_traitsIcESaIcEENSt7__cxx1112basic_stringIT_T0_T1_EEOS8_RKS8_>
    3831:	48 8d 95 a0 fd ff ff 	lea    -0x260(%rbp),%rdx
    3838:	48 8d 85 c0 fd ff ff 	lea    -0x240(%rbp),%rax
    383f:	48 89 d6             	mov    %rdx,%rsi
    3842:	48 89 c7             	mov    %rax,%rdi
    3845:	e8 d2 36 00 00       	call   6f1c <_ZN6Logger4infoERKNSt7__cxx1112basic_stringIcSt11char_traitsIcESaIcEEE>
    384a:	48 8d 85 a0 fd ff ff 	lea    -0x260(%rbp),%rax
    3851:	48 89 c7             	mov    %rax,%rdi
    3854:	e8 53 08 00 00       	call   40ac <_ZNSt7__cxx1112basic_stringIcSt11char_traitsIcESaIcEED1Ev>
    3859:	48 8d 85 80 fd ff ff 	lea    -0x280(%rbp),%rax
    3860:	48 89 c7             	mov    %rax,%rdi
    3863:	e8 44 08 00 00       	call   40ac <_ZNSt7__cxx1112basic_stringIcSt11char_traitsIcESaIcEED1Ev>
    3868:	48 8d 85 60 fd ff ff 	lea    -0x2a0(%rbp),%rax
    386f:	48 89 c7             	mov    %rax,%rdi
    3872:	e8 35 08 00 00       	call   40ac <_ZNSt7__cxx1112basic_stringIcSt11char_traitsIcESaIcEED1Ev>
    3877:	bb 00 00 00 00       	mov    $0x0,%ebx
    387c:	48 8d 85 40 fd ff ff 	lea    -0x2c0(%rbp),%rax
    3883:	48 89 c7             	mov    %rax,%rdi
    3886:	e8 21 08 00 00       	call   40ac <_ZNSt7__cxx1112basic_stringIcSt11char_traitsIcESaIcEED1Ev>
    388b:	48 8d 85 20 fd ff ff 	lea    -0x2e0(%rbp),%rax
    3892:	48 89 c7             	mov    %rax,%rdi
    3895:	e8 12 08 00 00       	call   40ac <_ZNSt7__cxx1112basic_stringIcSt11char_traitsIcESaIcEED1Ev>
    389a:	e9 7b 03 00 00       	jmp    3c1a <main+0x741>
    389f:	48 8d 15 15 59 00 00 	lea    0x5915(%rip),%rdx        # 91bb <_IO_stdin_used+0x1bb>
    38a6:	48 8d 85 00 fd ff ff 	lea    -0x300(%rbp),%rax
    38ad:	48 89 d6             	mov    %rdx,%rsi
    38b0:	48 89 c7             	mov    %rax,%rdi
    38b3:	e8 dc 09 00 00       	call   4294 <_ZSteqIcSt11char_traitsIcESaIcEEbRKNSt7__cxx1112basic_stringIT_T0_T1_EEPKS5_>
    38b8:	84 c0                	test   %al,%al
    38ba:	0f 84 af 01 00 00    	je     3a6f <main+0x596>
    38c0:	83 bd 5c fc ff ff 02 	cmpl   $0x2,-0x3a4(%rbp)
    38c7:	7f 72                	jg     393b <main+0x462>
    38c9:	48 8d 85 e0 fc ff ff 	lea    -0x320(%rbp),%rax
    38d0:	48 89 85 b0 fc ff ff 	mov    %rax,-0x350(%rbp)
    38d7:	90                   	nop
    38d8:	90                   	nop
    38d9:	48 8d 95 e0 fc ff ff 	lea    -0x320(%rbp),%rdx
    38e0:	48 8d 0d e1 58 00 00 	lea    0x58e1(%rip),%rcx        # 91c8 <_IO_stdin_used+0x1c8>
    38e7:	48 8d 85 a0 fd ff ff 	lea    -0x260(%rbp),%rax
    38ee:	48 89 ce             	mov    %rcx,%rsi
    38f1:	48 89 c7             	mov    %rax,%rdi
    38f4:	e8 fb 08 00 00       	call   41f4 <_ZNSt7__cxx1112basic_stringIcSt11char_traitsIcESaIcEEC1IS3_EEPKcRKS3_>
    38f9:	48 8d 95 a0 fd ff ff 	lea    -0x260(%rbp),%rdx
    3900:	48 8d 85 c0 fd ff ff 	lea    -0x240(%rbp),%rax
    3907:	48 89 d6             	mov    %rdx,%rsi
    390a:	48 89 c7             	mov    %rax,%rdi
    390d:	e8 8c 37 00 00       	call   709e <_ZN6Logger5errorERKNSt7__cxx1112basic_stringIcSt11char_traitsIcESaIcEEE>
    3912:	48 8d 85 a0 fd ff ff 	lea    -0x260(%rbp),%rax
    3919:	48 89 c7             	mov    %rax,%rdi
    391c:	e8 8b 07 00 00       	call   40ac <_ZNSt7__cxx1112basic_stringIcSt11char_traitsIcESaIcEED1Ev>
    3921:	48 8d 85 e0 fc ff ff 	lea    -0x320(%rbp),%rax
    3928:	48 89 c7             	mov    %rax,%rdi
    392b:	e8 5e 0f 00 00       	call   488e <_ZNSt15__new_allocatorIcED1Ev>
    3930:	90                   	nop
    3931:	bb 04 00 00 00       	mov    $0x4,%ebx
    3936:	e9 df 02 00 00       	jmp    3c1a <main+0x741>
    393b:	48 8d 85 e0 fc ff ff 	lea    -0x320(%rbp),%rax
    3942:	48 89 85 b8 fc ff ff 	mov    %rax,-0x348(%rbp)
    3949:	90                   	nop
    394a:	90                   	nop
    394b:	48 8b 85 50 fc ff ff 	mov    -0x3b0(%rbp),%rax
    3952:	48 83 c0 10          	add    $0x10,%rax
    3956:	48 8b 08             	mov    (%rax),%rcx
    3959:	48 8d 95 e0 fc ff ff 	lea    -0x320(%rbp),%rdx
    3960:	48 8d 85 80 fd ff ff 	lea    -0x280(%rbp),%rax
    3967:	48 89 ce             	mov    %rcx,%rsi
    396a:	48 89 c7             	mov    %rax,%rdi
    396d:	e8 82 08 00 00       	call   41f4 <_ZNSt7__cxx1112basic_stringIcSt11char_traitsIcESaIcEEC1IS3_EEPKcRKS3_>
    3972:	48 8d 85 e0 fc ff ff 	lea    -0x320(%rbp),%rax
    3979:	48 89 c7             	mov    %rax,%rdi
    397c:	e8 0d 0f 00 00       	call   488e <_ZNSt15__new_allocatorIcED1Ev>
    3981:	90                   	nop
    3982:	48 8d 85 a0 fd ff ff 	lea    -0x260(%rbp),%rax
    3989:	48 8d 95 80 fd ff ff 	lea    -0x280(%rbp),%rdx
    3990:	48 8d 0d 61 58 00 00 	lea    0x5861(%rip),%rcx        # 91f8 <_IO_stdin_used+0x1f8>
    3997:	48 89 ce             	mov    %rcx,%rsi
    399a:	48 89 c7             	mov    %rax,%rdi
    399d:	e8 82 09 00 00       	call   4324 <_ZStplIcSt11char_traitsIcESaIcEENSt7__cxx1112basic_stringIT_T0_T1_EEPKS5_RKS8_>
    39a2:	48 8d 95 a0 fd ff ff 	lea    -0x260(%rbp),%rdx
    39a9:	48 8d 85 c0 fd ff ff 	lea    -0x240(%rbp),%rax
    39b0:	48 89 d6             	mov    %rdx,%rsi
    39b3:	48 89 c7             	mov    %rax,%rdi
    39b6:	e8 61 35 00 00       	call   6f1c <_ZN6Logger4infoERKNSt7__cxx1112basic_stringIcSt11char_traitsIcESaIcEEE>
    39bb:	48 8d 85 a0 fd ff ff 	lea    -0x260(%rbp),%rax
    39c2:	48 89 c7             	mov    %rax,%rdi
    39c5:	e8 e2 06 00 00       	call   40ac <_ZNSt7__cxx1112basic_stringIcSt11char_traitsIcESaIcEED1Ev>
    39ca:	48 8d 85 80 fd ff ff 	lea    -0x280(%rbp),%rax
    39d1:	be 0a 00 00 00       	mov    $0xa,%esi
    39d6:	48 89 c7             	mov    %rax,%rdi
    39d9:	e8 4f 3b 00 00       	call   752d <_Z14sniffInterfaceRKNSt7__cxx1112basic_stringIcSt11char_traitsIcESaIcEEEi>
    39de:	89 85 6c fc ff ff    	mov    %eax,-0x394(%rbp)
    39e4:	83 bd 6c fc ff ff 00 	cmpl   $0x0,-0x394(%rbp)
    39eb:	74 68                	je     3a55 <main+0x57c>
    39ed:	48 8d 85 e0 fc ff ff 	lea    -0x320(%rbp),%rax
    39f4:	48 89 85 c0 fc ff ff 	mov    %rax,-0x340(%rbp)
    39fb:	90                   	nop
    39fc:	90                   	nop
    39fd:	48 8d 95 e0 fc ff ff 	lea    -0x320(%rbp),%rdx
    3a04:	48 8d 0d 16 58 00 00 	lea    0x5816(%rip),%rcx        # 9221 <_IO_stdin_used+0x221>
    3a0b:	48 8d 85 a0 fd ff ff 	lea    -0x260(%rbp),%rax
    3a12:	48 89 ce             	mov    %rcx,%rsi
    3a15:	48 89 c7             	mov    %rax,%rdi
    3a18:	e8 d7 07 00 00       	call   41f4 <_ZNSt7__cxx1112basic_stringIcSt11char_traitsIcESaIcEEC1IS3_EEPKcRKS3_>
    3a1d:	48 8d 95 a0 fd ff ff 	lea    -0x260(%rbp),%rdx
    3a24:	48 8d 85 c0 fd ff ff 	lea    -0x240(%rbp),%rax
    3a2b:	48 89 d6             	mov    %rdx,%rsi
    3a2e:	48 89 c7             	mov    %rax,%rdi
    3a31:	e8 68 36 00 00       	call   709e <_ZN6Logger5errorERKNSt7__cxx1112basic_stringIcSt11char_traitsIcESaIcEEE>
    3a36:	48 8d 85 a0 fd ff ff 	lea    -0x260(%rbp),%rax
    3a3d:	48 89 c7             	mov    %rax,%rdi
    3a40:	e8 67 06 00 00       	call   40ac <_ZNSt7__cxx1112basic_stringIcSt11char_traitsIcESaIcEED1Ev>
    3a45:	48 8d 85 e0 fc ff ff 	lea    -0x320(%rbp),%rax
    3a4c:	48 89 c7             	mov    %rax,%rdi
    3a4f:	e8 3a 0e 00 00       	call   488e <_ZNSt15__new_allocatorIcED1Ev>
    3a54:	90                   	nop
    3a55:	8b 9d 6c fc ff ff    	mov    -0x394(%rbp),%ebx
    3a5b:	48 8d 85 80 fd ff ff 	lea    -0x280(%rbp),%rax
    3a62:	48 89 c7             	mov    %rax,%rdi
    3a65:	e8 42 06 00 00       	call   40ac <_ZNSt7__cxx1112basic_stringIcSt11char_traitsIcESaIcEED1Ev>
    3a6a:	e9 ab 01 00 00       	jmp    3c1a <main+0x741>
    3a6f:	48 8d 15 c9 57 00 00 	lea    0x57c9(%rip),%rdx        # 923f <_IO_stdin_used+0x23f>
    3a76:	48 8d 85 00 fd ff ff 	lea    -0x300(%rbp),%rax
    3a7d:	48 89 d6             	mov    %rdx,%rsi
    3a80:	48 89 c7             	mov    %rax,%rdi
    3a83:	e8 0c 08 00 00       	call   4294 <_ZSteqIcSt11char_traitsIcESaIcEEbRKNSt7__cxx1112basic_stringIT_T0_T1_EEPKS5_>
    3a88:	84 c0                	test   %al,%al
    3a8a:	0f 84 1d 01 00 00    	je     3bad <main+0x6d4>
    3a90:	48 8d 85 e0 fc ff ff 	lea    -0x320(%rbp),%rax
    3a97:	48 89 c7             	mov    %rax,%rdi
    3a9a:	e8 fd 3b 00 00       	call   769c <_Z13listProcessesB5cxx11v>
    3a9f:	48 8d 85 e0 fc ff ff 	lea    -0x320(%rbp),%rax
    3aa6:	48 89 85 80 fc ff ff 	mov    %rax,-0x380(%rbp)
    3aad:	48 8b 85 80 fc ff ff 	mov    -0x380(%rbp),%rax
    3ab4:	48 89 c7             	mov    %rax,%rdi
    3ab7:	e8 2a 0a 00 00       	call   44e6 <_ZNSt6vectorISt4pairIiNSt7__cxx1112basic_stringIcSt11char_traitsIcESaIcEEEESaIS7_EE5beginEv>
    3abc:	48 89 85 70 fc ff ff 	mov    %rax,-0x390(%rbp)
    3ac3:	48 8b 85 80 fc ff ff 	mov    -0x380(%rbp),%rax
    3aca:	48 89 c7             	mov    %rax,%rdi
    3acd:	e8 5e 0a 00 00       	call   4530 <_ZNSt6vectorISt4pairIiNSt7__cxx1112basic_stringIcSt11char_traitsIcESaIcEEEESaIS7_EE3endEv>
    3ad2:	48 89 85 78 fc ff ff 	mov    %rax,-0x388(%rbp)
    3ad9:	eb 7e                	jmp    3b59 <main+0x680>
    3adb:	48 8b 85 70 fc ff ff 	mov    -0x390(%rbp),%rax
    3ae2:	48 89 85 88 fc ff ff 	mov    %rax,-0x378(%rbp)
    3ae9:	48 8b 85 88 fc ff ff 	mov    -0x378(%rbp),%rax
    3af0:	8b 00                	mov    (%rax),%eax
    3af2:	48 8d 15 07 97 00 00 	lea    0x9707(%rip),%rdx        # d200 <_ZSt4cout@GLIBCXX_3.4>
    3af9:	89 c6                	mov    %eax,%esi
    3afb:	48 89 d7             	mov    %rdx,%rdi
    3afe:	e8 8d f6 ff ff       	call   3190 <_ZNSolsEi@plt>
    3b03:	48 89 c2             	mov    %rax,%rdx
    3b06:	48 8d 05 3c 57 00 00 	lea    0x573c(%rip),%rax        # 9249 <_IO_stdin_used+0x249>
    3b0d:	48 89 c6             	mov    %rax,%rsi
    3b10:	48 89 d7             	mov    %rdx,%rdi
    3b13:	e8 38 f7 ff ff       	call   3250 <_ZStlsISt11char_traitsIcEERSt13basic_ostreamIcT_ES5_PKc@plt>
    3b18:	48 89 c2             	mov    %rax,%rdx
    3b1b:	48 8b 85 88 fc ff ff 	mov    -0x378(%rbp),%rax
    3b22:	48 83 c0 08          	add    $0x8,%rax
    3b26:	48 89 c6             	mov    %rax,%rsi
    3b29:	48 89 d7             	mov    %rdx,%rdi
    3b2c:	e8 4f f6 ff ff       	call   3180 <_ZStlsIcSt11char_traitsIcESaIcEERSt13basic_ostreamIT_T0_ES7_RKNSt7__cxx1112basic_stringIS4_S5_T1_EE@plt>
    3b31:	48 89 c2             	mov    %rax,%rdx
    3b34:	48 8d 05 11 57 00 00 	lea    0x5711(%rip),%rax        # 924c <_IO_stdin_used+0x24c>
    3b3b:	48 89 c6             	mov    %rax,%rsi
    3b3e:	48 89 d7             	mov    %rdx,%rdi
    3b41:	e8 0a f7 ff ff       	call   3250 <_ZStlsISt11char_traitsIcEERSt13basic_ostreamIcT_ES5_PKc@plt>
    3b46:	48 8b 85 70 fc ff ff 	mov    -0x390(%rbp),%rax
    3b4d:	48 83 c0 28          	add    $0x28,%rax
    3b51:	48 89 85 70 fc ff ff 	mov    %rax,-0x390(%rbp)
    3b58:	90                   	nop
    3b59:	48 8d 85 70 fc ff ff 	lea    -0x390(%rbp),%rax
    3b60:	48 89 85 c8 fc ff ff 	mov    %rax,-0x338(%rbp)
    3b67:	48 8b 85 c8 fc ff ff 	mov    -0x338(%rbp),%rax
    3b6e:	48 8b 10             	mov    (%rax),%rdx
    3b71:	48 8d 85 78 fc ff ff 	lea    -0x388(%rbp),%rax
    3b78:	48 89 85 d0 fc ff ff 	mov    %rax,-0x330(%rbp)
    3b7f:	48 8b 85 d0 fc ff ff 	mov    -0x330(%rbp),%rax
    3b86:	48 8b 00             	mov    (%rax),%rax
    3b89:	48 39 c2             	cmp    %rax,%rdx
    3b8c:	0f 95 c0             	setne  %al
    3b8f:	84 c0                	test   %al,%al
    3b91:	0f 85 44 ff ff ff    	jne    3adb <main+0x602>
    3b97:	bb 00 00 00 00       	mov    $0x0,%ebx
    3b9c:	48 8d 85 e0 fc ff ff 	lea    -0x320(%rbp),%rax
    3ba3:	48 89 c7             	mov    %rax,%rdi
    3ba6:	e8 e5 08 00 00       	call   4490 <_ZNSt6vectorISt4pairIiNSt7__cxx1112basic_stringIcSt11char_traitsIcESaIcEEEESaIS7_EED1Ev>
    3bab:	eb 6d                	jmp    3c1a <main+0x741>
    3bad:	48 8d 85 e0 fc ff ff 	lea    -0x320(%rbp),%rax
    3bb4:	48 89 85 d8 fc ff ff 	mov    %rax,-0x328(%rbp)
    3bbb:	90                   	nop
    3bbc:	90                   	nop
    3bbd:	48 8d 95 e0 fc ff ff 	lea    -0x320(%rbp),%rdx
    3bc4:	48 8d 0d 83 56 00 00 	lea    0x5683(%rip),%rcx        # 924e <_IO_stdin_used+0x24e>
    3bcb:	48 8d 85 a0 fd ff ff 	lea    -0x260(%rbp),%rax
    3bd2:	48 89 ce             	mov    %rcx,%rsi
    3bd5:	48 89 c7             	mov    %rax,%rdi
    3bd8:	e8 17 06 00 00       	call   41f4 <_ZNSt7__cxx1112basic_stringIcSt11char_traitsIcESaIcEEC1IS3_EEPKcRKS3_>
    3bdd:	48 8d 95 a0 fd ff ff 	lea    -0x260(%rbp),%rdx
    3be4:	48 8d 85 c0 fd ff ff 	lea    -0x240(%rbp),%rax
    3beb:	48 89 d6             	mov    %rdx,%rsi
    3bee:	48 89 c7             	mov    %rax,%rdi
    3bf1:	e8 a8 34 00 00       	call   709e <_ZN6Logger5errorERKNSt7__cxx1112basic_stringIcSt11char_traitsIcESaIcEEE>
    3bf6:	48 8d 85 a0 fd ff ff 	lea    -0x260(%rbp),%rax
    3bfd:	48 89 c7             	mov    %rax,%rdi
    3c00:	e8 a7 04 00 00       	call   40ac <_ZNSt7__cxx1112basic_stringIcSt11char_traitsIcESaIcEED1Ev>
    3c05:	48 8d 85 e0 fc ff ff 	lea    -0x320(%rbp),%rax
    3c0c:	48 89 c7             	mov    %rax,%rdi
    3c0f:	e8 7a 0c 00 00       	call   488e <_ZNSt15__new_allocatorIcED1Ev>
    3c14:	90                   	nop
    3c15:	bb 05 00 00 00       	mov    $0x5,%ebx
    3c1a:	48 8d 85 00 fd ff ff 	lea    -0x300(%rbp),%rax
    3c21:	48 89 c7             	mov    %rax,%rdi
    3c24:	e8 83 04 00 00       	call   40ac <_ZNSt7__cxx1112basic_stringIcSt11char_traitsIcESaIcEED1Ev>
    3c29:	48 8d 85 c0 fd ff ff 	lea    -0x240(%rbp),%rax
    3c30:	48 89 c7             	mov    %rax,%rdi
    3c33:	e8 a0 32 00 00       	call   6ed8 <_ZN6LoggerD1Ev>
    3c38:	89 d8                	mov    %ebx,%eax
    3c3a:	48 8b 55 e8          	mov    -0x18(%rbp),%rdx
    3c3e:	64 48 2b 14 25 28 00 	sub    %fs:0x28,%rdx
    3c45:	00 00 
    3c47:	0f 84 3e 02 00 00    	je     3e8b <main+0x9b2>
    3c4d:	e9 34 02 00 00       	jmp    3e86 <main+0x9ad>
    3c52:	48 89 c3             	mov    %rax,%rbx
    3c55:	48 8d 85 a0 fd ff ff 	lea    -0x260(%rbp),%rax
    3c5c:	48 89 c7             	mov    %rax,%rdi
    3c5f:	e8 48 04 00 00       	call   40ac <_ZNSt7__cxx1112basic_stringIcSt11char_traitsIcESaIcEED1Ev>
    3c64:	eb 03                	jmp    3c69 <main+0x790>
    3c66:	48 89 c3             	mov    %rax,%rbx
    3c69:	48 8d 85 e0 fc ff ff 	lea    -0x320(%rbp),%rax
    3c70:	48 89 c7             	mov    %rax,%rdi
    3c73:	e8 16 0c 00 00       	call   488e <_ZNSt15__new_allocatorIcED1Ev>
    3c78:	90                   	nop
    3c79:	48 89 d8             	mov    %rbx,%rax
    3c7c:	48 8b 55 e8          	mov    -0x18(%rbp),%rdx
    3c80:	64 48 2b 14 25 28 00 	sub    %fs:0x28,%rdx
    3c87:	00 00 
    3c89:	74 05                	je     3c90 <main+0x7b7>
    3c8b:	e8 d0 f4 ff ff       	call   3160 <__stack_chk_fail@plt>
    3c90:	48 89 c7             	mov    %rax,%rdi
    3c93:	e8 e8 f5 ff ff       	call   3280 <_Unwind_Resume@plt>
    3c98:	48 89 c3             	mov    %rax,%rbx
    3c9b:	48 8d 85 e0 fc ff ff 	lea    -0x320(%rbp),%rax
    3ca2:	48 89 c7             	mov    %rax,%rdi
    3ca5:	e8 e4 0b 00 00       	call   488e <_ZNSt15__new_allocatorIcED1Ev>
    3caa:	90                   	nop
    3cab:	e9 a8 01 00 00       	jmp    3e58 <main+0x97f>
    3cb0:	48 89 c3             	mov    %rax,%rbx
    3cb3:	48 8d 85 a0 fd ff ff 	lea    -0x260(%rbp),%rax
    3cba:	48 89 c7             	mov    %rax,%rdi
    3cbd:	e8 ea 03 00 00       	call   40ac <_ZNSt7__cxx1112basic_stringIcSt11char_traitsIcESaIcEED1Ev>
    3cc2:	eb 03                	jmp    3cc7 <main+0x7ee>
    3cc4:	48 89 c3             	mov    %rax,%rbx
    3cc7:	48 8d 85 e0 fc ff ff 	lea    -0x320(%rbp),%rax
    3cce:	48 89 c7             	mov    %rax,%rdi
    3cd1:	e8 b8 0b 00 00       	call   488e <_ZNSt15__new_allocatorIcED1Ev>
    3cd6:	90                   	nop
    3cd7:	e9 68 01 00 00       	jmp    3e44 <main+0x96b>
    3cdc:	48 89 c3             	mov    %rax,%rbx
    3cdf:	48 8d 85 e0 fc ff ff 	lea    -0x320(%rbp),%rax
    3ce6:	48 89 c7             	mov    %rax,%rdi
    3ce9:	e8 a0 0b 00 00       	call   488e <_ZNSt15__new_allocatorIcED1Ev>
    3cee:	90                   	nop
    3cef:	e9 50 01 00 00       	jmp    3e44 <main+0x96b>
    3cf4:	48 89 c3             	mov    %rax,%rbx
    3cf7:	48 8d 85 a0 fd ff ff 	lea    -0x260(%rbp),%rax
    3cfe:	48 89 c7             	mov    %rax,%rdi
    3d01:	e8 a6 03 00 00       	call   40ac <_ZNSt7__cxx1112basic_stringIcSt11char_traitsIcESaIcEED1Ev>
    3d06:	eb 3f                	jmp    3d47 <main+0x86e>
    3d08:	48 89 c3             	mov    %rax,%rbx
    3d0b:	48 8d 85 a0 fd ff ff 	lea    -0x260(%rbp),%rax
    3d12:	48 89 c7             	mov    %rax,%rdi
    3d15:	e8 92 03 00 00       	call   40ac <_ZNSt7__cxx1112basic_stringIcSt11char_traitsIcESaIcEED1Ev>
    3d1a:	eb 03                	jmp    3d1f <main+0x846>
    3d1c:	48 89 c3             	mov    %rax,%rbx
    3d1f:	48 8d 85 80 fd ff ff 	lea    -0x280(%rbp),%rax
    3d26:	48 89 c7             	mov    %rax,%rdi
    3d29:	e8 7e 03 00 00       	call   40ac <_ZNSt7__cxx1112basic_stringIcSt11char_traitsIcESaIcEED1Ev>
    3d2e:	eb 03                	jmp    3d33 <main+0x85a>
    3d30:	48 89 c3             	mov    %rax,%rbx
    3d33:	48 8d 85 60 fd ff ff 	lea    -0x2a0(%rbp),%rax
    3d3a:	48 89 c7             	mov    %rax,%rdi
    3d3d:	e8 6a 03 00 00       	call   40ac <_ZNSt7__cxx1112basic_stringIcSt11char_traitsIcESaIcEED1Ev>
    3d42:	eb 03                	jmp    3d47 <main+0x86e>
    3d44:	48 89 c3             	mov    %rax,%rbx
    3d47:	48 8d 85 40 fd ff ff 	lea    -0x2c0(%rbp),%rax
    3d4e:	48 89 c7             	mov    %rax,%rdi
    3d51:	e8 56 03 00 00       	call   40ac <_ZNSt7__cxx1112basic_stringIcSt11char_traitsIcESaIcEED1Ev>
    3d56:	eb 03                	jmp    3d5b <main+0x882>
    3d58:	48 89 c3             	mov    %rax,%rbx
    3d5b:	48 8d 85 20 fd ff ff 	lea    -0x2e0(%rbp),%rax
    3d62:	48 89 c7             	mov    %rax,%rdi
    3d65:	e8 42 03 00 00       	call   40ac <_ZNSt7__cxx1112basic_stringIcSt11char_traitsIcESaIcEED1Ev>
    3d6a:	e9 d5 00 00 00       	jmp    3e44 <main+0x96b>
    3d6f:	48 89 c3             	mov    %rax,%rbx
    3d72:	48 8d 85 a0 fd ff ff 	lea    -0x260(%rbp),%rax
    3d79:	48 89 c7             	mov    %rax,%rdi
    3d7c:	e8 2b 03 00 00       	call   40ac <_ZNSt7__cxx1112basic_stringIcSt11char_traitsIcESaIcEED1Ev>
    3d81:	eb 03                	jmp    3d86 <main+0x8ad>
    3d83:	48 89 c3             	mov    %rax,%rbx
    3d86:	48 8d 85 e0 fc ff ff 	lea    -0x320(%rbp),%rax
    3d8d:	48 89 c7             	mov    %rax,%rdi
    3d90:	e8 f9 0a 00 00       	call   488e <_ZNSt15__new_allocatorIcED1Ev>
    3d95:	90                   	nop
    3d96:	e9 a9 00 00 00       	jmp    3e44 <main+0x96b>
    3d9b:	48 89 c3             	mov    %rax,%rbx
    3d9e:	48 8d 85 e0 fc ff ff 	lea    -0x320(%rbp),%rax
    3da5:	48 89 c7             	mov    %rax,%rdi
    3da8:	e8 e1 0a 00 00       	call   488e <_ZNSt15__new_allocatorIcED1Ev>
    3dad:	90                   	nop
    3dae:	e9 91 00 00 00       	jmp    3e44 <main+0x96b>
    3db3:	48 89 c3             	mov    %rax,%rbx
    3db6:	48 8d 85 a0 fd ff ff 	lea    -0x260(%rbp),%rax
    3dbd:	48 89 c7             	mov    %rax,%rdi
    3dc0:	e8 e7 02 00 00       	call   40ac <_ZNSt7__cxx1112basic_stringIcSt11char_traitsIcESaIcEED1Ev>
    3dc5:	eb 2c                	jmp    3df3 <main+0x91a>
    3dc7:	48 89 c3             	mov    %rax,%rbx
    3dca:	48 8d 85 a0 fd ff ff 	lea    -0x260(%rbp),%rax
    3dd1:	48 89 c7             	mov    %rax,%rdi
    3dd4:	e8 d3 02 00 00       	call   40ac <_ZNSt7__cxx1112basic_stringIcSt11char_traitsIcESaIcEED1Ev>
    3dd9:	eb 03                	jmp    3dde <main+0x905>
    3ddb:	48 89 c3             	mov    %rax,%rbx
    3dde:	48 8d 85 e0 fc ff ff 	lea    -0x320(%rbp),%rax
    3de5:	48 89 c7             	mov    %rax,%rdi
    3de8:	e8 a1 0a 00 00       	call   488e <_ZNSt15__new_allocatorIcED1Ev>
    3ded:	90                   	nop
    3dee:	eb 03                	jmp    3df3 <main+0x91a>
    3df0:	48 89 c3             	mov    %rax,%rbx
    3df3:	48 8d 85 80 fd ff ff 	lea    -0x280(%rbp),%rax
    3dfa:	48 89 c7             	mov    %rax,%rdi
    3dfd:	e8 aa 02 00 00       	call   40ac <_ZNSt7__cxx1112basic_stringIcSt11char_traitsIcESaIcEED1Ev>
    3e02:	eb 40                	jmp    3e44 <main+0x96b>
    3e04:	48 89 c3             	mov    %rax,%rbx
    3e07:	48 8d 85 e0 fc ff ff 	lea    -0x320(%rbp),%rax
    3e0e:	48 89 c7             	mov    %rax,%rdi
    3e11:	e8 7a 06 00 00       	call   4490 <_ZNSt6vectorISt4pairIiNSt7__cxx1112basic_stringIcSt11char_traitsIcESaIcEEEESaIS7_EED1Ev>
    3e16:	eb 2c                	jmp    3e44 <main+0x96b>
    3e18:	48 89 c3             	mov    %rax,%rbx
    3e1b:	48 8d 85 a0 fd ff ff 	lea    -0x260(%rbp),%rax
    3e22:	48 89 c7             	mov    %rax,%rdi
    3e25:	e8 82 02 00 00       	call   40ac <_ZNSt7__cxx1112basic_stringIcSt11char_traitsIcESaIcEED1Ev>
    3e2a:	eb 03                	jmp    3e2f <main+0x956>
    3e2c:	48 89 c3             	mov    %rax,%rbx
    3e2f:	48 8d 85 e0 fc ff ff 	lea    -0x320(%rbp),%rax
    3e36:	48 89 c7             	mov    %rax,%rdi
    3e39:	e8 50 0a 00 00       	call   488e <_ZNSt15__new_allocatorIcED1Ev>
    3e3e:	90                   	nop
    3e3f:	eb 03                	jmp    3e44 <main+0x96b>
    3e41:	48 89 c3             	mov    %rax,%rbx
    3e44:	48 8d 85 00 fd ff ff 	lea    -0x300(%rbp),%rax
    3e4b:	48 89 c7             	mov    %rax,%rdi
    3e4e:	e8 59 02 00 00       	call   40ac <_ZNSt7__cxx1112basic_stringIcSt11char_traitsIcESaIcEED1Ev>
    3e53:	eb 03                	jmp    3e58 <main+0x97f>
    3e55:	48 89 c3             	mov    %rax,%rbx
    3e58:	48 8d 85 c0 fd ff ff 	lea    -0x240(%rbp),%rax
    3e5f:	48 89 c7             	mov    %rax,%rdi
    3e62:	e8 71 30 00 00       	call   6ed8 <_ZN6LoggerD1Ev>
    3e67:	48 89 d8             	mov    %rbx,%rax
    3e6a:	48 8b 55 e8          	mov    -0x18(%rbp),%rdx
    3e6e:	64 48 2b 14 25 28 00 	sub    %fs:0x28,%rdx
    3e75:	00 00 
    3e77:	74 05                	je     3e7e <main+0x9a5>
    3e79:	e8 e2 f2 ff ff       	call   3160 <__stack_chk_fail@plt>
    3e7e:	48 89 c7             	mov    %rax,%rdi
    3e81:	e8 fa f3 ff ff       	call   3280 <_Unwind_Resume@plt>
    3e86:	e8 d5 f2 ff ff       	call   3160 <__stack_chk_fail@plt>
    3e8b:	48 8b 5d f8          	mov    -0x8(%rbp),%rbx
    3e8f:	c9                   	leave
    3e90:	c3                   	ret

0000000000003e91 <_ZNSt11char_traitsIcE6assignERcRKc>:
    3e91:	55                   	push   %rbp
    3e92:	48 89 e5             	mov    %rsp,%rbp
    3e95:	48 89 7d f8          	mov    %rdi,-0x8(%rbp)
    3e99:	48 89 75 f0          	mov    %rsi,-0x10(%rbp)
    3e9d:	48 8b 45 f0          	mov    -0x10(%rbp),%rax
    3ea1:	0f b6 10             	movzbl (%rax),%edx
    3ea4:	48 8b 45 f8          	mov    -0x8(%rbp),%rax
    3ea8:	88 10                	mov    %dl,(%rax)
    3eaa:	90                   	nop
    3eab:	5d                   	pop    %rbp
    3eac:	c3                   	ret

0000000000003ead <_ZNSt11char_traitsIcE2ltERKcS2_>:
    3ead:	55                   	push   %rbp
    3eae:	48 89 e5             	mov    %rsp,%rbp
    3eb1:	48 89 7d f8          	mov    %rdi,-0x8(%rbp)
    3eb5:	48 89 75 f0          	mov    %rsi,-0x10(%rbp)
    3eb9:	48 8b 45 f8          	mov    -0x8(%rbp),%rax
    3ebd:	0f b6 00             	movzbl (%rax),%eax
    3ec0:	89 c2                	mov    %eax,%edx
    3ec2:	48 8b 45 f0          	mov    -0x10(%rbp),%rax
    3ec6:	0f b6 00             	movzbl (%rax),%eax
    3ec9:	38 c2                	cmp    %al,%dl
    3ecb:	0f 92 c0             	setb   %al
    3ece:	5d                   	pop    %rbp
    3ecf:	c3                   	ret

0000000000003ed0 <_ZNSt11char_traitsIcE7compareEPKcS2_m>:
    3ed0:	55                   	push   %rbp
    3ed1:	48 89 e5             	mov    %rsp,%rbp
    3ed4:	48 83 ec 30          	sub    $0x30,%rsp
    3ed8:	48 89 7d e8          	mov    %rdi,-0x18(%rbp)
    3edc:	48 89 75 e0          	mov    %rsi,-0x20(%rbp)
    3ee0:	48 89 55 d8          	mov    %rdx,-0x28(%rbp)
    3ee4:	48 83 7d d8 00       	cmpq   $0x0,-0x28(%rbp)
    3ee9:	75 0a                	jne    3ef5 <_ZNSt11char_traitsIcE7compareEPKcS2_m+0x25>
    3eeb:	b8 00 00 00 00       	mov    $0x0,%eax
    3ef0:	e9 99 00 00 00       	jmp    3f8e <_ZNSt11char_traitsIcE7compareEPKcS2_m+0xbe>
    3ef5:	b8 00 00 00 00       	mov    $0x0,%eax
    3efa:	84 c0                	test   %al,%al
    3efc:	74 78                	je     3f76 <_ZNSt11char_traitsIcE7compareEPKcS2_m+0xa6>
    3efe:	48 c7 45 f8 00 00 00 	movq   $0x0,-0x8(%rbp)
    3f05:	00 
    3f06:	eb 5d                	jmp    3f65 <_ZNSt11char_traitsIcE7compareEPKcS2_m+0x95>
    3f08:	48 8b 55 e0          	mov    -0x20(%rbp),%rdx
    3f0c:	48 8b 45 f8          	mov    -0x8(%rbp),%rax
    3f10:	48 01 c2             	add    %rax,%rdx
    3f13:	48 8b 4d e8          	mov    -0x18(%rbp),%rcx
    3f17:	48 8b 45 f8          	mov    -0x8(%rbp),%rax
    3f1b:	48 01 c8             	add    %rcx,%rax
    3f1e:	48 89 d6             	mov    %rdx,%rsi
    3f21:	48 89 c7             	mov    %rax,%rdi
    3f24:	e8 84 ff ff ff       	call   3ead <_ZNSt11char_traitsIcE2ltERKcS2_>
    3f29:	84 c0                	test   %al,%al
    3f2b:	74 07                	je     3f34 <_ZNSt11char_traitsIcE7compareEPKcS2_m+0x64>
    3f2d:	b8 ff ff ff ff       	mov    $0xffffffff,%eax
    3f32:	eb 5a                	jmp    3f8e <_ZNSt11char_traitsIcE7compareEPKcS2_m+0xbe>
    3f34:	48 8b 55 e8          	mov    -0x18(%rbp),%rdx
    3f38:	48 8b 45 f8          	mov    -0x8(%rbp),%rax
    3f3c:	48 01 c2             	add    %rax,%rdx
    3f3f:	48 8b 4d e0          	mov    -0x20(%rbp),%rcx
    3f43:	48 8b 45 f8          	mov    -0x8(%rbp),%rax
    3f47:	48 01 c8             	add    %rcx,%rax
    3f4a:	48 89 d6             	mov    %rdx,%rsi
    3f4d:	48 89 c7             	mov    %rax,%rdi
    3f50:	e8 58 ff ff ff       	call   3ead <_ZNSt11char_traitsIcE2ltERKcS2_>
    3f55:	84 c0                	test   %al,%al
    3f57:	74 07                	je     3f60 <_ZNSt11char_traitsIcE7compareEPKcS2_m+0x90>
    3f59:	b8 01 00 00 00       	mov    $0x1,%eax
    3f5e:	eb 2e                	jmp    3f8e <_ZNSt11char_traitsIcE7compareEPKcS2_m+0xbe>
    3f60:	48 83 45 f8 01       	addq   $0x1,-0x8(%rbp)
    3f65:	48 8b 45 f8          	mov    -0x8(%rbp),%rax
    3f69:	48 3b 45 d8          	cmp    -0x28(%rbp),%rax
    3f6d:	72 99                	jb     3f08 <_ZNSt11char_traitsIcE7compareEPKcS2_m+0x38>
    3f6f:	b8 00 00 00 00       	mov    $0x0,%eax
    3f74:	eb 18                	jmp    3f8e <_ZNSt11char_traitsIcE7compareEPKcS2_m+0xbe>
    3f76:	48 8b 55 d8          	mov    -0x28(%rbp),%rdx
    3f7a:	48 8b 4d e0          	mov    -0x20(%rbp),%rcx
    3f7e:	48 8b 45 e8          	mov    -0x18(%rbp),%rax
    3f82:	48 89 ce             	mov    %rcx,%rsi
    3f85:	48 89 c7             	mov    %rax,%rdi
    3f88:	e8 03 f4 ff ff       	call   3390 <memcmp@plt>
    3f8d:	90                   	nop
    3f8e:	c9                   	leave
    3f8f:	c3                   	ret

0000000000003f90 <_ZNSt11char_traitsIcE6lengthEPKc>:
    3f90:	55                   	push   %rbp
    3f91:	48 89 e5             	mov    %rsp,%rbp
    3f94:	48 83 ec 10          	sub    $0x10,%rsp
    3f98:	48 89 7d f8          	mov    %rdi,-0x8(%rbp)
    3f9c:	b8 00 00 00 00       	mov    $0x0,%eax
    3fa1:	84 c0                	test   %al,%al
    3fa3:	74 0e                	je     3fb3 <_ZNSt11char_traitsIcE6lengthEPKc+0x23>
    3fa5:	48 8b 45 f8          	mov    -0x8(%rbp),%rax
    3fa9:	48 89 c7             	mov    %rax,%rdi
    3fac:	e8 53 00 00 00       	call   4004 <_ZN9__gnu_cxx11char_traitsIcE6lengthEPKc>
    3fb1:	eb 0d                	jmp    3fc0 <_ZNSt11char_traitsIcE6lengthEPKc+0x30>
    3fb3:	48 8b 45 f8          	mov    -0x8(%rbp),%rax
    3fb7:	48 89 c7             	mov    %rax,%rdi
    3fba:	e8 11 f2 ff ff       	call   31d0 <strlen@plt>
    3fbf:	90                   	nop
    3fc0:	c9                   	leave
    3fc1:	c3                   	ret

0000000000003fc2 <_ZNSt11char_traitsIcE4copyEPcPKcm>:
    3fc2:	55                   	push   %rbp
    3fc3:	48 89 e5             	mov    %rsp,%rbp
    3fc6:	48 83 ec 20          	sub    $0x20,%rsp
    3fca:	48 89 7d f8          	mov    %rdi,-0x8(%rbp)
    3fce:	48 89 75 f0          	mov    %rsi,-0x10(%rbp)
    3fd2:	48 89 55 e8          	mov    %rdx,-0x18(%rbp)
    3fd6:	48 83 7d e8 00       	cmpq   $0x0,-0x18(%rbp)
    3fdb:	75 06                	jne    3fe3 <_ZNSt11char_traitsIcE4copyEPcPKcm+0x21>
    3fdd:	48 8b 45 f8          	mov    -0x8(%rbp),%rax
    3fe1:	eb 1e                	jmp    4001 <_ZNSt11char_traitsIcE4copyEPcPKcm+0x3f>
    3fe3:	48 8b 55 f8          	mov    -0x8(%rbp),%rdx
    3fe7:	48 8b 45 f0          	mov    -0x10(%rbp),%rax
    3feb:	48 89 d1             	mov    %rdx,%rcx
    3fee:	48 89 c6             	mov    %rax,%rsi
    3ff1:	48 8b 45 e8          	mov    -0x18(%rbp),%rax
    3ff5:	48 89 c2             	mov    %rax,%rdx
    3ff8:	48 89 cf             	mov    %rcx,%rdi
    3ffb:	e8 80 f0 ff ff       	call   3080 <memcpy@plt>
    4000:	90                   	nop
    4001:	c9                   	leave
    4002:	c3                   	ret
    4003:	90                   	nop

0000000000004004 <_ZN9__gnu_cxx11char_traitsIcE6lengthEPKc>:
    4004:	55                   	push   %rbp
    4005:	48 89 e5             	mov    %rsp,%rbp
    4008:	48 83 ec 30          	sub    $0x30,%rsp
    400c:	48 89 7d d8          	mov    %rdi,-0x28(%rbp)
    4010:	64 48 8b 04 25 28 00 	mov    %fs:0x28,%rax
    4017:	00 00 
    4019:	48 89 45 f8          	mov    %rax,-0x8(%rbp)
    401d:	31 c0                	xor    %eax,%eax
    401f:	48 c7 45 f0 00 00 00 	movq   $0x0,-0x10(%rbp)
    4026:	00 
    4027:	eb 05                	jmp    402e <_ZN9__gnu_cxx11char_traitsIcE6lengthEPKc+0x2a>
    4029:	48 83 45 f0 01       	addq   $0x1,-0x10(%rbp)
    402e:	c6 45 ef 00          	movb   $0x0,-0x11(%rbp)
    4032:	48 8b 55 d8          	mov    -0x28(%rbp),%rdx
    4036:	48 8b 45 f0          	mov    -0x10(%rbp),%rax
    403a:	48 01 c2             	add    %rax,%rdx
    403d:	48 8d 45 ef          	lea    -0x11(%rbp),%rax
    4041:	48 89 c6             	mov    %rax,%rsi
    4044:	48 89 d7             	mov    %rdx,%rdi
    4047:	e8 31 05 00 00       	call   457d <_ZN9__gnu_cxx11char_traitsIcE2eqERKcS3_>
    404c:	83 f0 01             	xor    $0x1,%eax
    404f:	84 c0                	test   %al,%al
    4051:	75 d6                	jne    4029 <_ZN9__gnu_cxx11char_traitsIcE6lengthEPKc+0x25>
    4053:	48 8b 45 f0          	mov    -0x10(%rbp),%rax
    4057:	48 8b 55 f8          	mov    -0x8(%rbp),%rdx
    405b:	64 48 2b 14 25 28 00 	sub    %fs:0x28,%rdx
    4062:	00 00 
    4064:	74 05                	je     406b <_ZN9__gnu_cxx11char_traitsIcE6lengthEPKc+0x67>
    4066:	e8 f5 f0 ff ff       	call   3160 <__stack_chk_fail@plt>
    406b:	c9                   	leave
    406c:	c3                   	ret
    406d:	90                   	nop

000000000000406e <_ZNKSt7__cxx1112basic_stringIcSt11char_traitsIcESaIcEE5c_strEv>:
    406e:	55                   	push   %rbp
    406f:	48 89 e5             	mov    %rsp,%rbp
    4072:	48 83 ec 10          	sub    $0x10,%rsp
    4076:	48 89 7d f8          	mov    %rdi,-0x8(%rbp)
    407a:	48 8b 45 f8          	mov    -0x8(%rbp),%rax
    407e:	48 89 c7             	mov    %rax,%rdi
    4081:	e8 18 05 00 00       	call   459e <_ZNKSt7__cxx1112basic_stringIcSt11char_traitsIcESaIcEE7_M_dataEv>
    4086:	c9                   	leave
    4087:	c3                   	ret

0000000000004088 <_ZNSt7__cxx1112basic_stringIcSt11char_traitsIcESaIcEE12_Alloc_hiderD1Ev>:
    4088:	55                   	push   %rbp
    4089:	48 89 e5             	mov    %rsp,%rbp
    408c:	48 83 ec 20          	sub    $0x20,%rsp
    4090:	48 89 7d e8          	mov    %rdi,-0x18(%rbp)
    4094:	48 8b 45 e8          	mov    -0x18(%rbp),%rax
    4098:	48 89 45 f8          	mov    %rax,-0x8(%rbp)
    409c:	48 8b 45 f8          	mov    -0x8(%rbp),%rax
    40a0:	48 89 c7             	mov    %rax,%rdi
    40a3:	e8 e6 07 00 00       	call   488e <_ZNSt15__new_allocatorIcED1Ev>
    40a8:	90                   	nop
    40a9:	90                   	nop
    40aa:	c9                   	leave
    40ab:	c3                   	ret

00000000000040ac <_ZNSt7__cxx1112basic_stringIcSt11char_traitsIcESaIcEED1Ev>:
    40ac:	55                   	push   %rbp
    40ad:	48 89 e5             	mov    %rsp,%rbp
    40b0:	48 83 ec 10          	sub    $0x10,%rsp
    40b4:	48 89 7d f8          	mov    %rdi,-0x8(%rbp)
    40b8:	48 8b 45 f8          	mov    -0x8(%rbp),%rax
    40bc:	48 89 c7             	mov    %rax,%rdi
    40bf:	e8 c2 05 00 00       	call   4686 <_ZNSt7__cxx1112basic_stringIcSt11char_traitsIcESaIcEE10_M_disposeEv>
    40c4:	48 8b 45 f8          	mov    -0x8(%rbp),%rax
    40c8:	48 89 c7             	mov    %rax,%rdi
    40cb:	e8 b8 ff ff ff       	call   4088 <_ZNSt7__cxx1112basic_stringIcSt11char_traitsIcESaIcEE12_Alloc_hiderD1Ev>
    40d0:	90                   	nop
    40d1:	c9                   	leave
    40d2:	c3                   	ret
    40d3:	90                   	nop

00000000000040d4 <_ZNSt7__cxx1112basic_stringIcSt11char_traitsIcESaIcEEC1EOS4_>:
    40d4:	55                   	push   %rbp
    40d5:	48 89 e5             	mov    %rsp,%rbp
    40d8:	41 54                	push   %r12
    40da:	53                   	push   %rbx
    40db:	48 83 ec 30          	sub    $0x30,%rsp
    40df:	48 89 7d c8          	mov    %rdi,-0x38(%rbp)
    40e3:	48 89 75 c0          	mov    %rsi,-0x40(%rbp)
    40e7:	48 8b 5d c8          	mov    -0x38(%rbp),%rbx
    40eb:	48 8b 45 c0          	mov    -0x40(%rbp),%rax
    40ef:	48 89 c7             	mov    %rax,%rdi
    40f2:	e8 7f 06 00 00       	call   4776 <_ZNSt7__cxx1112basic_stringIcSt11char_traitsIcESaIcEE16_M_get_allocatorEv>
    40f7:	48 89 45 d8          	mov    %rax,-0x28(%rbp)
    40fb:	4c 8b 65 d8          	mov    -0x28(%rbp),%r12
    40ff:	48 8b 45 c8          	mov    -0x38(%rbp),%rax
    4103:	48 89 c7             	mov    %rax,%rdi
    4106:	e8 a5 04 00 00       	call   45b0 <_ZNSt7__cxx1112basic_stringIcSt11char_traitsIcESaIcEE13_M_local_dataEv>
    410b:	4c 89 e2             	mov    %r12,%rdx
    410e:	48 89 c6             	mov    %rax,%rsi
    4111:	48 89 df             	mov    %rbx,%rdi
    4114:	e8 b5 04 00 00       	call   45ce <_ZNSt7__cxx1112basic_stringIcSt11char_traitsIcESaIcEE12_Alloc_hiderC1EPcOS3_>
    4119:	48 8b 45 c0          	mov    -0x40(%rbp),%rax
    411d:	48 89 c7             	mov    %rax,%rdi
    4120:	e8 5f 06 00 00       	call   4784 <_ZNKSt7__cxx1112basic_stringIcSt11char_traitsIcESaIcEE11_M_is_localEv>
    4125:	84 c0                	test   %al,%al
    4127:	74 36                	je     415f <_ZNSt7__cxx1112basic_stringIcSt11char_traitsIcESaIcEEC1EOS4_+0x8b>
    4129:	48 8b 45 c8          	mov    -0x38(%rbp),%rax
    412d:	48 89 45 e0          	mov    %rax,-0x20(%rbp)
    4131:	90                   	nop
    4132:	48 8b 45 c0          	mov    -0x40(%rbp),%rax
    4136:	48 89 c7             	mov    %rax,%rdi
    4139:	e8 96 06 00 00       	call   47d4 <_ZNKSt7__cxx1112basic_stringIcSt11char_traitsIcESaIcEE6lengthEv>
    413e:	48 8d 50 01          	lea    0x1(%rax),%rdx
    4142:	48 8b 45 c0          	mov    -0x40(%rbp),%rax
    4146:	48 8d 48 10          	lea    0x10(%rax),%rcx
    414a:	48 8b 45 c8          	mov    -0x38(%rbp),%rax
    414e:	48 83 c0 10          	add    $0x10,%rax
    4152:	48 89 ce             	mov    %rcx,%rsi
    4155:	48 89 c7             	mov    %rax,%rdi
    4158:	e8 65 fe ff ff       	call   3fc2 <_ZNSt11char_traitsIcE4copyEPcPKcm>
    415d:	eb 35                	jmp    4194 <_ZNSt7__cxx1112basic_stringIcSt11char_traitsIcESaIcEEC1EOS4_+0xc0>
    415f:	48 8b 45 c0          	mov    -0x40(%rbp),%rax
    4163:	48 89 c7             	mov    %rax,%rdi
    4166:	e8 33 04 00 00       	call   459e <_ZNKSt7__cxx1112basic_stringIcSt11char_traitsIcESaIcEE7_M_dataEv>
    416b:	48 89 c2             	mov    %rax,%rdx
    416e:	48 8b 45 c8          	mov    -0x38(%rbp),%rax
    4172:	48 89 d6             	mov    %rdx,%rsi
    4175:	48 89 c7             	mov    %rax,%rdi
    4178:	e8 71 06 00 00       	call   47ee <_ZNSt7__cxx1112basic_stringIcSt11char_traitsIcESaIcEE7_M_dataEPc>
    417d:	48 8b 45 c0          	mov    -0x40(%rbp),%rax
    4181:	48 8b 50 10          	mov    0x10(%rax),%rdx
    4185:	48 8b 45 c8          	mov    -0x38(%rbp),%rax
    4189:	48 89 d6             	mov    %rdx,%rsi
    418c:	48 89 c7             	mov    %rax,%rdi
    418f:	e8 74 06 00 00       	call   4808 <_ZNSt7__cxx1112basic_stringIcSt11char_traitsIcESaIcEE11_M_capacityEm>
    4194:	48 8b 45 c0          	mov    -0x40(%rbp),%rax
    4198:	48 89 c7             	mov    %rax,%rdi
    419b:	e8 34 06 00 00       	call   47d4 <_ZNKSt7__cxx1112basic_stringIcSt11char_traitsIcESaIcEE6lengthEv>
    41a0:	48 89 c2             	mov    %rax,%rdx
    41a3:	48 8b 45 c8          	mov    -0x38(%rbp),%rax
    41a7:	48 89 d6             	mov    %rdx,%rsi
    41aa:	48 89 c7             	mov    %rax,%rdi
    41ad:	e8 72 06 00 00       	call   4824 <_ZNSt7__cxx1112basic_stringIcSt11char_traitsIcESaIcEE9_M_lengthEm>
    41b2:	48 8b 45 c0          	mov    -0x40(%rbp),%rax
    41b6:	48 89 45 e8          	mov    %rax,-0x18(%rbp)
    41ba:	48 8b 45 e8          	mov    -0x18(%rbp),%rax
    41be:	48 89 c7             	mov    %rax,%rdi
    41c1:	e8 ea 03 00 00       	call   45b0 <_ZNSt7__cxx1112basic_stringIcSt11char_traitsIcESaIcEE13_M_local_dataEv>
    41c6:	48 89 c2             	mov    %rax,%rdx
    41c9:	90                   	nop
    41ca:	48 8b 45 c0          	mov    -0x40(%rbp),%rax
    41ce:	48 89 d6             	mov    %rdx,%rsi
    41d1:	48 89 c7             	mov    %rax,%rdi
    41d4:	e8 15 06 00 00       	call   47ee <_ZNSt7__cxx1112basic_stringIcSt11char_traitsIcESaIcEE7_M_dataEPc>
    41d9:	48 8b 45 c0          	mov    -0x40(%rbp),%rax
    41dd:	be 00 00 00 00       	mov    $0x0,%esi
    41e2:	48 89 c7             	mov    %rax,%rdi
    41e5:	e8 2c 04 00 00       	call   4616 <_ZNSt7__cxx1112basic_stringIcSt11char_traitsIcESaIcEE13_M_set_lengthEm>
    41ea:	90                   	nop
    41eb:	48 83 c4 30          	add    $0x30,%rsp
    41ef:	5b                   	pop    %rbx
    41f0:	41 5c                	pop    %r12
    41f2:	5d                   	pop    %rbp
    41f3:	c3                   	ret

00000000000041f4 <_ZNSt7__cxx1112basic_stringIcSt11char_traitsIcESaIcEEC1IS3_EEPKcRKS3_>:
    41f4:	55                   	push   %rbp
    41f5:	48 89 e5             	mov    %rsp,%rbp
    41f8:	53                   	push   %rbx
    41f9:	48 83 ec 38          	sub    $0x38,%rsp
    41fd:	48 89 7d d8          	mov    %rdi,-0x28(%rbp)
    4201:	48 89 75 d0          	mov    %rsi,-0x30(%rbp)
    4205:	48 89 55 c8          	mov    %rdx,-0x38(%rbp)
    4209:	48 8b 5d d8          	mov    -0x28(%rbp),%rbx
    420d:	48 8b 45 d8          	mov    -0x28(%rbp),%rax
    4211:	48 89 c7             	mov    %rax,%rdi
    4214:	e8 97 03 00 00       	call   45b0 <_ZNSt7__cxx1112basic_stringIcSt11char_traitsIcESaIcEE13_M_local_dataEv>
    4219:	48 89 c1             	mov    %rax,%rcx
    421c:	48 8b 45 c8          	mov    -0x38(%rbp),%rax
    4220:	48 89 c2             	mov    %rax,%rdx
    4223:	48 89 ce             	mov    %rcx,%rsi
    4226:	48 89 df             	mov    %rbx,%rdi
    4229:	e8 6c 06 00 00       	call   489a <_ZNSt7__cxx1112basic_stringIcSt11char_traitsIcESaIcEE12_Alloc_hiderC1EPcRKS3_>
    422e:	48 83 7d d0 00       	cmpq   $0x0,-0x30(%rbp)
    4233:	75 0f                	jne    4244 <_ZNSt7__cxx1112basic_stringIcSt11char_traitsIcESaIcEEC1IS3_EEPKcRKS3_+0x50>
    4235:	48 8d 05 34 50 00 00 	lea    0x5034(%rip),%rax        # 9270 <_IO_stdin_used+0x270>
    423c:	48 89 c7             	mov    %rax,%rdi
    423f:	e8 0c ee ff ff       	call   3050 <_ZSt19__throw_logic_errorPKc@plt>
    4244:	48 8b 45 d0          	mov    -0x30(%rbp),%rax
    4248:	48 89 c7             	mov    %rax,%rdi
    424b:	e8 40 fd ff ff       	call   3f90 <_ZNSt11char_traitsIcE6lengthEPKc>
    4250:	48 8b 55 d0          	mov    -0x30(%rbp),%rdx
    4254:	48 01 d0             	add    %rdx,%rax
    4257:	48 89 45 e8          	mov    %rax,-0x18(%rbp)
    425b:	48 8b 55 e8          	mov    -0x18(%rbp),%rdx
    425f:	48 8b 4d d0          	mov    -0x30(%rbp),%rcx
    4263:	48 8b 45 d8          	mov    -0x28(%rbp),%rax
    4267:	48 89 ce             	mov    %rcx,%rsi
    426a:	48 89 c7             	mov    %rax,%rdi
    426d:	e8 ac 06 00 00       	call   491e <_ZNSt7__cxx1112basic_stringIcSt11char_traitsIcESaIcEE12_M_constructIPKcEEvT_S8_St20forward_iterator_tag>
    4272:	eb 1a                	jmp    428e <_ZNSt7__cxx1112basic_stringIcSt11char_traitsIcESaIcEEC1IS3_EEPKcRKS3_+0x9a>
    4274:	48 89 c3             	mov    %rax,%rbx
    4277:	48 8b 45 d8          	mov    -0x28(%rbp),%rax
    427b:	48 89 c7             	mov    %rax,%rdi
    427e:	e8 05 fe ff ff       	call   4088 <_ZNSt7__cxx1112basic_stringIcSt11char_traitsIcESaIcEE12_Alloc_hiderD1Ev>
    4283:	48 89 d8             	mov    %rbx,%rax
    4286:	48 89 c7             	mov    %rax,%rdi
    4289:	e8 f2 ef ff ff       	call   3280 <_Unwind_Resume@plt>
    428e:	48 8b 5d f8          	mov    -0x8(%rbp),%rbx
    4292:	c9                   	leave
    4293:	c3                   	ret

0000000000004294 <_ZSteqIcSt11char_traitsIcESaIcEEbRKNSt7__cxx1112basic_stringIT_T0_T1_EEPKS5_>:
    4294:	55                   	push   %rbp
    4295:	48 89 e5             	mov    %rsp,%rbp
    4298:	53                   	push   %rbx
    4299:	48 83 ec 18          	sub    $0x18,%rsp
    429d:	48 89 7d e8          	mov    %rdi,-0x18(%rbp)
    42a1:	48 89 75 e0          	mov    %rsi,-0x20(%rbp)
    42a5:	48 8b 45 e8          	mov    -0x18(%rbp),%rax
    42a9:	48 89 c7             	mov    %rax,%rdi
    42ac:	e8 a9 05 00 00       	call   485a <_ZNKSt7__cxx1112basic_stringIcSt11char_traitsIcESaIcEE4sizeEv>
    42b1:	48 89 c3             	mov    %rax,%rbx
    42b4:	48 8b 45 e0          	mov    -0x20(%rbp),%rax
    42b8:	48 89 c7             	mov    %rax,%rdi
    42bb:	e8 d0 fc ff ff       	call   3f90 <_ZNSt11char_traitsIcE6lengthEPKc>
    42c0:	48 39 c3             	cmp    %rax,%rbx
    42c3:	75 3b                	jne    4300 <_ZSteqIcSt11char_traitsIcESaIcEEbRKNSt7__cxx1112basic_stringIT_T0_T1_EEPKS5_+0x6c>
    42c5:	48 8b 45 e8          	mov    -0x18(%rbp),%rax
    42c9:	48 89 c7             	mov    %rax,%rdi
    42cc:	e8 89 05 00 00       	call   485a <_ZNKSt7__cxx1112basic_stringIcSt11char_traitsIcESaIcEE4sizeEv>
    42d1:	48 89 c3             	mov    %rax,%rbx
    42d4:	48 8b 45 e8          	mov    -0x18(%rbp),%rax
    42d8:	48 89 c7             	mov    %rax,%rdi
    42db:	e8 60 05 00 00       	call   4840 <_ZNKSt7__cxx1112basic_stringIcSt11char_traitsIcESaIcEE4dataEv>
    42e0:	48 89 c1             	mov    %rax,%rcx
    42e3:	48 8b 45 e0          	mov    -0x20(%rbp),%rax
    42e7:	48 89 da             	mov    %rbx,%rdx
    42ea:	48 89 c6             	mov    %rax,%rsi
    42ed:	48 89 cf             	mov    %rcx,%rdi
    42f0:	e8 db fb ff ff       	call   3ed0 <_ZNSt11char_traitsIcE7compareEPKcS2_m>
    42f5:	85 c0                	test   %eax,%eax
    42f7:	75 07                	jne    4300 <_ZSteqIcSt11char_traitsIcESaIcEEbRKNSt7__cxx1112basic_stringIT_T0_T1_EEPKS5_+0x6c>
    42f9:	b8 01 00 00 00       	mov    $0x1,%eax
    42fe:	eb 05                	jmp    4305 <_ZSteqIcSt11char_traitsIcESaIcEEbRKNSt7__cxx1112basic_stringIT_T0_T1_EEPKS5_+0x71>
    4300:	b8 00 00 00 00       	mov    $0x0,%eax
    4305:	48 8b 5d f8          	mov    -0x8(%rbp),%rbx
    4309:	c9                   	leave
    430a:	c3                   	ret
    430b:	90                   	nop

000000000000430c <_ZNKSt7__cxx1112basic_stringIcSt11char_traitsIcESaIcEE5emptyEv>:
    430c:	55                   	push   %rbp
    430d:	48 89 e5             	mov    %rsp,%rbp
    4310:	48 89 7d f8          	mov    %rdi,-0x8(%rbp)
    4314:	48 8b 45 f8          	mov    -0x8(%rbp),%rax
    4318:	48 8b 40 08          	mov    0x8(%rax),%rax
    431c:	48 85 c0             	test   %rax,%rax
    431f:	0f 94 c0             	sete   %al
    4322:	5d                   	pop    %rbp
    4323:	c3                   	ret

0000000000004324 <_ZStplIcSt11char_traitsIcESaIcEENSt7__cxx1112basic_stringIT_T0_T1_EEPKS5_RKS8_>:
    4324:	55                   	push   %rbp
    4325:	48 89 e5             	mov    %rsp,%rbp
    4328:	41 54                	push   %r12
    432a:	53                   	push   %rbx
    432b:	48 83 ec 30          	sub    $0x30,%rsp
    432f:	48 89 7d d8          	mov    %rdi,-0x28(%rbp)
    4333:	48 89 75 d0          	mov    %rsi,-0x30(%rbp)
    4337:	48 89 55 c8          	mov    %rdx,-0x38(%rbp)
    433b:	64 48 8b 04 25 28 00 	mov    %fs:0x28,%rax
    4342:	00 00 
    4344:	48 89 45 e8          	mov    %rax,-0x18(%rbp)
    4348:	31 c0                	xor    %eax,%eax
    434a:	48 8d 45 e7          	lea    -0x19(%rbp),%rax
    434e:	48 8b 55 c8          	mov    -0x38(%rbp),%rdx
    4352:	48 89 d6             	mov    %rdx,%rsi
    4355:	48 89 c7             	mov    %rax,%rdi
    4358:	e8 d7 06 00 00       	call   4a34 <_ZNKSt7__cxx1112basic_stringIcSt11char_traitsIcESaIcEE13get_allocatorEv>
    435d:	48 8b 45 c8          	mov    -0x38(%rbp),%rax
    4361:	48 89 c7             	mov    %rax,%rdi
    4364:	e8 f1 04 00 00       	call   485a <_ZNKSt7__cxx1112basic_stringIcSt11char_traitsIcESaIcEE4sizeEv>
    4369:	49 89 c4             	mov    %rax,%r12
    436c:	48 8b 45 c8          	mov    -0x38(%rbp),%rax
    4370:	48 89 c7             	mov    %rax,%rdi
    4373:	e8 f6 fc ff ff       	call   406e <_ZNKSt7__cxx1112basic_stringIcSt11char_traitsIcESaIcEE5c_strEv>
    4378:	48 89 c3             	mov    %rax,%rbx
    437b:	48 8b 45 d0          	mov    -0x30(%rbp),%rax
    437f:	48 89 c7             	mov    %rax,%rdi
    4382:	e8 09 fc ff ff       	call   3f90 <_ZNSt11char_traitsIcE6lengthEPKc>
    4387:	48 89 c2             	mov    %rax,%rdx
    438a:	48 8b 45 d8          	mov    -0x28(%rbp),%rax
    438e:	48 8d 4d e7          	lea    -0x19(%rbp),%rcx
    4392:	48 8b 75 d0          	mov    -0x30(%rbp),%rsi
    4396:	49 89 c9             	mov    %rcx,%r9
    4399:	4d 89 e0             	mov    %r12,%r8
    439c:	48 89 d9             	mov    %rbx,%rcx
    439f:	48 89 c7             	mov    %rax,%rdi
    43a2:	e8 ce 06 00 00       	call   4a75 <_ZSt12__str_concatINSt7__cxx1112basic_stringIcSt11char_traitsIcESaIcEEEET_PKNS6_10value_typeENS6_9size_typeES9_SA_RKNS6_14allocator_typeE>
    43a7:	90                   	nop
    43a8:	48 8d 45 e7          	lea    -0x19(%rbp),%rax
    43ac:	48 89 c7             	mov    %rax,%rdi
    43af:	e8 da 04 00 00       	call   488e <_ZNSt15__new_allocatorIcED1Ev>
    43b4:	90                   	nop
    43b5:	90                   	nop
    43b6:	48 8b 45 e8          	mov    -0x18(%rbp),%rax
    43ba:	64 48 2b 04 25 28 00 	sub    %fs:0x28,%rax
    43c1:	00 00 
    43c3:	74 36                	je     43fb <_ZStplIcSt11char_traitsIcESaIcEENSt7__cxx1112basic_stringIT_T0_T1_EEPKS5_RKS8_+0xd7>
    43c5:	eb 2f                	jmp    43f6 <_ZStplIcSt11char_traitsIcESaIcEENSt7__cxx1112basic_stringIT_T0_T1_EEPKS5_RKS8_+0xd2>
    43c7:	48 89 c3             	mov    %rax,%rbx
    43ca:	48 8d 45 e7          	lea    -0x19(%rbp),%rax
    43ce:	48 89 c7             	mov    %rax,%rdi
    43d1:	e8 b8 04 00 00       	call   488e <_ZNSt15__new_allocatorIcED1Ev>
    43d6:	90                   	nop
    43d7:	48 89 d8             	mov    %rbx,%rax
    43da:	48 8b 55 e8          	mov    -0x18(%rbp),%rdx
    43de:	64 48 2b 14 25 28 00 	sub    %fs:0x28,%rdx
    43e5:	00 00 
    43e7:	74 05                	je     43ee <_ZStplIcSt11char_traitsIcESaIcEENSt7__cxx1112basic_stringIT_T0_T1_EEPKS5_RKS8_+0xca>
    43e9:	e8 72 ed ff ff       	call   3160 <__stack_chk_fail@plt>
    43ee:	48 89 c7             	mov    %rax,%rdi
    43f1:	e8 8a ee ff ff       	call   3280 <_Unwind_Resume@plt>
    43f6:	e8 65 ed ff ff       	call   3160 <__stack_chk_fail@plt>
    43fb:	48 8b 45 d8          	mov    -0x28(%rbp),%rax
    43ff:	48 83 c4 30          	add    $0x30,%rsp
    4403:	5b                   	pop    %rbx
    4404:	41 5c                	pop    %r12
    4406:	5d                   	pop    %rbp
    4407:	c3                   	ret

0000000000004408 <_ZStplIcSt11char_traitsIcESaIcEENSt7__cxx1112basic_stringIT_T0_T1_EEOS8_PKS5_>:
    4408:	55                   	push   %rbp
    4409:	48 89 e5             	mov    %rsp,%rbp
    440c:	48 83 ec 30          	sub    $0x30,%rsp
    4410:	48 89 7d e8          	mov    %rdi,-0x18(%rbp)
    4414:	48 89 75 e0          	mov    %rsi,-0x20(%rbp)
    4418:	48 89 55 d8          	mov    %rdx,-0x28(%rbp)
    441c:	48 8b 55 d8          	mov    -0x28(%rbp),%rdx
    4420:	48 8b 45 e0          	mov    -0x20(%rbp),%rax
    4424:	48 89 d6             	mov    %rdx,%rsi
    4427:	48 89 c7             	mov    %rax,%rdi
    442a:	e8 61 07 00 00       	call   4b90 <_ZNSt7__cxx1112basic_stringIcSt11char_traitsIcESaIcEE6appendEPKc>
    442f:	48 89 45 f8          	mov    %rax,-0x8(%rbp)
    4433:	48 8b 55 f8          	mov    -0x8(%rbp),%rdx
    4437:	48 8b 45 e8          	mov    -0x18(%rbp),%rax
    443b:	48 89 d6             	mov    %rdx,%rsi
    443e:	48 89 c7             	mov    %rax,%rdi
    4441:	e8 8e fc ff ff       	call   40d4 <_ZNSt7__cxx1112basic_stringIcSt11char_traitsIcESaIcEEC1EOS4_>
    4446:	48 8b 45 e8          	mov    -0x18(%rbp),%rax
    444a:	c9                   	leave
    444b:	c3                   	ret

000000000000444c <_ZStplIcSt11char_traitsIcESaIcEENSt7__cxx1112basic_stringIT_T0_T1_EEOS8_RKS8_>:
    444c:	55                   	push   %rbp
    444d:	48 89 e5             	mov    %rsp,%rbp
    4450:	48 83 ec 30          	sub    $0x30,%rsp
    4454:	48 89 7d e8          	mov    %rdi,-0x18(%rbp)
    4458:	48 89 75 e0          	mov    %rsi,-0x20(%rbp)
    445c:	48 89 55 d8          	mov    %rdx,-0x28(%rbp)
    4460:	48 8b 55 d8          	mov    -0x28(%rbp),%rdx
    4464:	48 8b 45 e0          	mov    -0x20(%rbp),%rax
    4468:	48 89 d6             	mov    %rdx,%rsi
    446b:	48 89 c7             	mov    %rax,%rdi
    446e:	e8 73 07 00 00       	call   4be6 <_ZNSt7__cxx1112basic_stringIcSt11char_traitsIcESaIcEE6appendERKS4_>
    4473:	48 89 45 f8          	mov    %rax,-0x8(%rbp)
    4477:	48 8b 55 f8          	mov    -0x8(%rbp),%rdx
    447b:	48 8b 45 e8          	mov    -0x18(%rbp),%rax
    447f:	48 89 d6             	mov    %rdx,%rsi
    4482:	48 89 c7             	mov    %rax,%rdi
    4485:	e8 4a fc ff ff       	call   40d4 <_ZNSt7__cxx1112basic_stringIcSt11char_traitsIcESaIcEEC1EOS4_>
    448a:	48 8b 45 e8          	mov    -0x18(%rbp),%rax
    448e:	c9                   	leave
    448f:	c3                   	ret

0000000000004490 <_ZNSt6vectorISt4pairIiNSt7__cxx1112basic_stringIcSt11char_traitsIcESaIcEEEESaIS7_EED1Ev>:
    4490:	55                   	push   %rbp
    4491:	48 89 e5             	mov    %rsp,%rbp
    4494:	48 83 ec 30          	sub    $0x30,%rsp
    4498:	48 89 7d d8          	mov    %rdi,-0x28(%rbp)
    449c:	48 8b 45 d8          	mov    -0x28(%rbp),%rax
    44a0:	48 89 c7             	mov    %rax,%rdi
    44a3:	e8 02 08 00 00       	call   4caa <_ZNSt12_Vector_baseISt4pairIiNSt7__cxx1112basic_stringIcSt11char_traitsIcESaIcEEEESaIS7_EE19_M_get_Tp_allocatorEv>
    44a8:	48 8b 55 d8          	mov    -0x28(%rbp),%rdx
    44ac:	48 8b 52 08          	mov    0x8(%rdx),%rdx
    44b0:	48 8b 4d d8          	mov    -0x28(%rbp),%rcx
    44b4:	48 8b 09             	mov    (%rcx),%rcx
    44b7:	48 89 4d e8          	mov    %rcx,-0x18(%rbp)
    44bb:	48 89 55 f0          	mov    %rdx,-0x10(%rbp)
    44bf:	48 89 45 f8          	mov    %rax,-0x8(%rbp)
    44c3:	48 8b 55 f0          	mov    -0x10(%rbp),%rdx
    44c7:	48 8b 45 e8          	mov    -0x18(%rbp),%rax
    44cb:	48 89 d6             	mov    %rdx,%rsi
    44ce:	48 89 c7             	mov    %rax,%rdi
    44d1:	e8 0e 0d 00 00       	call   51e4 <_ZSt8_DestroyIPSt4pairIiNSt7__cxx1112basic_stringIcSt11char_traitsIcESaIcEEEEEvT_S9_>
    44d6:	90                   	nop
    44d7:	48 8b 45 d8          	mov    -0x28(%rbp),%rax
    44db:	48 89 c7             	mov    %rax,%rdi
    44de:	e8 6f 07 00 00       	call   4c52 <_ZNSt12_Vector_baseISt4pairIiNSt7__cxx1112basic_stringIcSt11char_traitsIcESaIcEEEESaIS7_EED1Ev>
    44e3:	90                   	nop
    44e4:	c9                   	leave
    44e5:	c3                   	ret

00000000000044e6 <_ZNSt6vectorISt4pairIiNSt7__cxx1112basic_stringIcSt11char_traitsIcESaIcEEEESaIS7_EE5beginEv>:
    44e6:	55                   	push   %rbp
    44e7:	48 89 e5             	mov    %rsp,%rbp
    44ea:	48 83 ec 30          	sub    $0x30,%rsp
    44ee:	48 89 7d d8          	mov    %rdi,-0x28(%rbp)
    44f2:	64 48 8b 04 25 28 00 	mov    %fs:0x28,%rax
    44f9:	00 00 
    44fb:	48 89 45 f8          	mov    %rax,-0x8(%rbp)
    44ff:	31 c0                	xor    %eax,%eax
    4501:	48 8b 45 d8          	mov    -0x28(%rbp),%rax
    4505:	48 89 45 f0          	mov    %rax,-0x10(%rbp)
    4509:	48 8b 45 f0          	mov    -0x10(%rbp),%rax
    450d:	48 8b 00             	mov    (%rax),%rax
    4510:	48 89 45 e8          	mov    %rax,-0x18(%rbp)
    4514:	90                   	nop
    4515:	48 8b 45 e8          	mov    -0x18(%rbp),%rax
    4519:	48 8b 55 f8          	mov    -0x8(%rbp),%rdx
    451d:	64 48 2b 14 25 28 00 	sub    %fs:0x28,%rdx
    4524:	00 00 
    4526:	74 05                	je     452d <_ZNSt6vectorISt4pairIiNSt7__cxx1112basic_stringIcSt11char_traitsIcESaIcEEEESaIS7_EE5beginEv+0x47>
    4528:	e8 33 ec ff ff       	call   3160 <__stack_chk_fail@plt>
    452d:	c9                   	leave
    452e:	c3                   	ret
    452f:	90                   	nop

0000000000004530 <_ZNSt6vectorISt4pairIiNSt7__cxx1112basic_stringIcSt11char_traitsIcESaIcEEEESaIS7_EE3endEv>:
    4530:	55                   	push   %rbp
    4531:	48 89 e5             	mov    %rsp,%rbp
    4534:	48 83 ec 30          	sub    $0x30,%rsp
    4538:	48 89 7d d8          	mov    %rdi,-0x28(%rbp)
    453c:	64 48 8b 04 25 28 00 	mov    %fs:0x28,%rax
    4543:	00 00 
    4545:	48 89 45 f8          	mov    %rax,-0x8(%rbp)
    4549:	31 c0                	xor    %eax,%eax
    454b:	48 8b 45 d8          	mov    -0x28(%rbp),%rax
    454f:	48 83 c0 08          	add    $0x8,%rax
    4553:	48 89 45 f0          	mov    %rax,-0x10(%rbp)
    4557:	48 8b 45 f0          	mov    -0x10(%rbp),%rax
    455b:	48 8b 00             	mov    (%rax),%rax
    455e:	48 89 45 e8          	mov    %rax,-0x18(%rbp)
    4562:	90                   	nop
    4563:	48 8b 45 e8          	mov    -0x18(%rbp),%rax
    4567:	48 8b 55 f8          	mov    -0x8(%rbp),%rdx
    456b:	64 48 2b 14 25 28 00 	sub    %fs:0x28,%rdx
    4572:	00 00 
    4574:	74 05                	je     457b <_ZNSt6vectorISt4pairIiNSt7__cxx1112basic_stringIcSt11char_traitsIcESaIcEEEESaIS7_EE3endEv+0x4b>
    4576:	e8 e5 eb ff ff       	call   3160 <__stack_chk_fail@plt>
    457b:	c9                   	leave
    457c:	c3                   	ret

000000000000457d <_ZN9__gnu_cxx11char_traitsIcE2eqERKcS3_>:
    457d:	55                   	push   %rbp
    457e:	48 89 e5             	mov    %rsp,%rbp
    4581:	48 89 7d f8          	mov    %rdi,-0x8(%rbp)
    4585:	48 89 75 f0          	mov    %rsi,-0x10(%rbp)
    4589:	48 8b 45 f8          	mov    -0x8(%rbp),%rax
    458d:	0f b6 10             	movzbl (%rax),%edx
    4590:	48 8b 45 f0          	mov    -0x10(%rbp),%rax
    4594:	0f b6 00             	movzbl (%rax),%eax
    4597:	38 c2                	cmp    %al,%dl
    4599:	0f 94 c0             	sete   %al
    459c:	5d                   	pop    %rbp
    459d:	c3                   	ret

000000000000459e <_ZNKSt7__cxx1112basic_stringIcSt11char_traitsIcESaIcEE7_M_dataEv>:
    459e:	55                   	push   %rbp
    459f:	48 89 e5             	mov    %rsp,%rbp
    45a2:	48 89 7d f8          	mov    %rdi,-0x8(%rbp)
    45a6:	48 8b 45 f8          	mov    -0x8(%rbp),%rax
    45aa:	48 8b 00             	mov    (%rax),%rax
    45ad:	5d                   	pop    %rbp
    45ae:	c3                   	ret
    45af:	90                   	nop

00000000000045b0 <_ZNSt7__cxx1112basic_stringIcSt11char_traitsIcESaIcEE13_M_local_dataEv>:
    45b0:	55                   	push   %rbp
    45b1:	48 89 e5             	mov    %rsp,%rbp
    45b4:	48 83 ec 10          	sub    $0x10,%rsp
    45b8:	48 89 7d f8          	mov    %rdi,-0x8(%rbp)
    45bc:	48 8b 45 f8          	mov    -0x8(%rbp),%rax
    45c0:	48 83 c0 10          	add    $0x10,%rax
    45c4:	48 89 c7             	mov    %rax,%rdi
    45c7:	e8 ec 06 00 00       	call   4cb8 <_ZNSt19__ptr_traits_ptr_toIPccLb0EE10pointer_toERc>
    45cc:	c9                   	leave
    45cd:	c3                   	ret

00000000000045ce <_ZNSt7__cxx1112basic_stringIcSt11char_traitsIcESaIcEE12_Alloc_hiderC1EPcOS3_>:
    45ce:	55                   	push   %rbp
    45cf:	48 89 e5             	mov    %rsp,%rbp
    45d2:	48 89 7d c8          	mov    %rdi,-0x38(%rbp)
    45d6:	48 89 75 c0          	mov    %rsi,-0x40(%rbp)
    45da:	48 89 55 b8          	mov    %rdx,-0x48(%rbp)
    45de:	48 8b 45 b8          	mov    -0x48(%rbp),%rax
    45e2:	48 89 45 f8          	mov    %rax,-0x8(%rbp)
    45e6:	48 8b 45 f8          	mov    -0x8(%rbp),%rax
    45ea:	48 8b 55 c8          	mov    -0x38(%rbp),%rdx
    45ee:	48 89 55 d8          	mov    %rdx,-0x28(%rbp)
    45f2:	48 89 45 e0          	mov    %rax,-0x20(%rbp)
    45f6:	48 8b 45 d8          	mov    -0x28(%rbp),%rax
    45fa:	48 89 45 e8          	mov    %rax,-0x18(%rbp)
    45fe:	48 8b 45 e0          	mov    -0x20(%rbp),%rax
    4602:	48 89 45 f0          	mov    %rax,-0x10(%rbp)
    4606:	90                   	nop
    4607:	90                   	nop
    4608:	48 8b 45 c8          	mov    -0x38(%rbp),%rax
    460c:	48 8b 55 c0          	mov    -0x40(%rbp),%rdx
    4610:	48 89 10             	mov    %rdx,(%rax)
    4613:	90                   	nop
    4614:	5d                   	pop    %rbp
    4615:	c3                   	ret

0000000000004616 <_ZNSt7__cxx1112basic_stringIcSt11char_traitsIcESaIcEE13_M_set_lengthEm>:
    4616:	55                   	push   %rbp
    4617:	48 89 e5             	mov    %rsp,%rbp
    461a:	48 83 ec 20          	sub    $0x20,%rsp
    461e:	48 89 7d e8          	mov    %rdi,-0x18(%rbp)
    4622:	48 89 75 e0          	mov    %rsi,-0x20(%rbp)
    4626:	64 48 8b 04 25 28 00 	mov    %fs:0x28,%rax
    462d:	00 00 
    462f:	48 89 45 f8          	mov    %rax,-0x8(%rbp)
    4633:	31 c0                	xor    %eax,%eax
    4635:	48 8b 55 e0          	mov    -0x20(%rbp),%rdx
    4639:	48 8b 45 e8          	mov    -0x18(%rbp),%rax
    463d:	48 89 d6             	mov    %rdx,%rsi
    4640:	48 89 c7             	mov    %rax,%rdi
    4643:	e8 dc 01 00 00       	call   4824 <_ZNSt7__cxx1112basic_stringIcSt11char_traitsIcESaIcEE9_M_lengthEm>
    4648:	c6 45 f7 00          	movb   $0x0,-0x9(%rbp)
    464c:	48 8b 45 e8          	mov    -0x18(%rbp),%rax
    4650:	48 89 c7             	mov    %rax,%rdi
    4653:	e8 46 ff ff ff       	call   459e <_ZNKSt7__cxx1112basic_stringIcSt11char_traitsIcESaIcEE7_M_dataEv>
    4658:	48 8b 55 e0          	mov    -0x20(%rbp),%rdx
    465c:	48 01 c2             	add    %rax,%rdx
    465f:	48 8d 45 f7          	lea    -0x9(%rbp),%rax
    4663:	48 89 c6             	mov    %rax,%rsi
    4666:	48 89 d7             	mov    %rdx,%rdi
    4669:	e8 23 f8 ff ff       	call   3e91 <_ZNSt11char_traitsIcE6assignERcRKc>
    466e:	90                   	nop
    466f:	48 8b 45 f8          	mov    -0x8(%rbp),%rax
    4673:	64 48 2b 04 25 28 00 	sub    %fs:0x28,%rax
    467a:	00 00 
    467c:	74 05                	je     4683 <_ZNSt7__cxx1112basic_stringIcSt11char_traitsIcESaIcEE13_M_set_lengthEm+0x6d>
    467e:	e8 dd ea ff ff       	call   3160 <__stack_chk_fail@plt>
    4683:	c9                   	leave
    4684:	c3                   	ret
    4685:	90                   	nop

0000000000004686 <_ZNSt7__cxx1112basic_stringIcSt11char_traitsIcESaIcEE10_M_disposeEv>:
    4686:	55                   	push   %rbp
    4687:	48 89 e5             	mov    %rsp,%rbp
    468a:	48 83 ec 10          	sub    $0x10,%rsp
    468e:	48 89 7d f8          	mov    %rdi,-0x8(%rbp)
    4692:	48 8b 45 f8          	mov    -0x8(%rbp),%rax
    4696:	48 89 c7             	mov    %rax,%rdi
    4699:	e8 e6 00 00 00       	call   4784 <_ZNKSt7__cxx1112basic_stringIcSt11char_traitsIcESaIcEE11_M_is_localEv>
    469e:	83 f0 01             	xor    $0x1,%eax
    46a1:	84 c0                	test   %al,%al
    46a3:	74 17                	je     46bc <_ZNSt7__cxx1112basic_stringIcSt11char_traitsIcESaIcEE10_M_disposeEv+0x36>
    46a5:	48 8b 45 f8          	mov    -0x8(%rbp),%rax
    46a9:	48 8b 50 10          	mov    0x10(%rax),%rdx
    46ad:	48 8b 45 f8          	mov    -0x8(%rbp),%rax
    46b1:	48 89 d6             	mov    %rdx,%rsi
    46b4:	48 89 c7             	mov    %rax,%rdi
    46b7:	e8 1c 06 00 00       	call   4cd8 <_ZNSt7__cxx1112basic_stringIcSt11char_traitsIcESaIcEE10_M_destroyEm>
    46bc:	90                   	nop
    46bd:	c9                   	leave
    46be:	c3                   	ret
    46bf:	90                   	nop

00000000000046c0 <_ZNSt7__cxx1112basic_stringIcSt11char_traitsIcESaIcEE7reserveEm>:
    46c0:	55                   	push   %rbp
    46c1:	48 89 e5             	mov    %rsp,%rbp
    46c4:	53                   	push   %rbx
    46c5:	48 83 ec 28          	sub    $0x28,%rsp
    46c9:	48 89 7d d8          	mov    %rdi,-0x28(%rbp)
    46cd:	48 89 75 d0          	mov    %rsi,-0x30(%rbp)
    46d1:	48 8b 45 d8          	mov    -0x28(%rbp),%rax
    46d5:	48 89 c7             	mov    %rax,%rdi
    46d8:	e8 5f 06 00 00       	call   4d3c <_ZNKSt7__cxx1112basic_stringIcSt11char_traitsIcESaIcEE8capacityEv>
    46dd:	48 89 45 e0          	mov    %rax,-0x20(%rbp)
    46e1:	48 8b 45 d0          	mov    -0x30(%rbp),%rax
    46e5:	48 39 45 e0          	cmp    %rax,-0x20(%rbp)
    46e9:	0f 83 80 00 00 00    	jae    476f <_ZNSt7__cxx1112basic_stringIcSt11char_traitsIcESaIcEE7reserveEm+0xaf>
    46ef:	48 8b 55 e0          	mov    -0x20(%rbp),%rdx
    46f3:	48 8d 4d d0          	lea    -0x30(%rbp),%rcx
    46f7:	48 8b 45 d8          	mov    -0x28(%rbp),%rax
    46fb:	48 89 ce             	mov    %rcx,%rsi
    46fe:	48 89 c7             	mov    %rax,%rdi
    4701:	e8 96 06 00 00       	call   4d9c <_ZNSt7__cxx1112basic_stringIcSt11char_traitsIcESaIcEE9_M_createERmm>
    4706:	48 89 45 e8          	mov    %rax,-0x18(%rbp)
    470a:	48 8b 45 d8          	mov    -0x28(%rbp),%rax
    470e:	48 89 c7             	mov    %rax,%rdi
    4711:	e8 be 00 00 00       	call   47d4 <_ZNKSt7__cxx1112basic_stringIcSt11char_traitsIcESaIcEE6lengthEv>
    4716:	48 8d 58 01          	lea    0x1(%rax),%rbx
    471a:	48 8b 45 d8          	mov    -0x28(%rbp),%rax
    471e:	48 89 c7             	mov    %rax,%rdi
    4721:	e8 78 fe ff ff       	call   459e <_ZNKSt7__cxx1112basic_stringIcSt11char_traitsIcESaIcEE7_M_dataEv>
    4726:	48 89 c1             	mov    %rax,%rcx
    4729:	48 8b 45 e8          	mov    -0x18(%rbp),%rax
    472d:	48 89 da             	mov    %rbx,%rdx
    4730:	48 89 ce             	mov    %rcx,%rsi
    4733:	48 89 c7             	mov    %rax,%rdi
    4736:	e8 29 07 00 00       	call   4e64 <_ZNSt7__cxx1112basic_stringIcSt11char_traitsIcESaIcEE7_S_copyEPcPKcm>
    473b:	48 8b 45 d8          	mov    -0x28(%rbp),%rax
    473f:	48 89 c7             	mov    %rax,%rdi
    4742:	e8 3f ff ff ff       	call   4686 <_ZNSt7__cxx1112basic_stringIcSt11char_traitsIcESaIcEE10_M_disposeEv>
    4747:	48 8b 55 e8          	mov    -0x18(%rbp),%rdx
    474b:	48 8b 45 d8          	mov    -0x28(%rbp),%rax
    474f:	48 89 d6             	mov    %rdx,%rsi
    4752:	48 89 c7             	mov    %rax,%rdi
    4755:	e8 94 00 00 00       	call   47ee <_ZNSt7__cxx1112basic_stringIcSt11char_traitsIcESaIcEE7_M_dataEPc>
    475a:	48 8b 55 d0          	mov    -0x30(%rbp),%rdx
    475e:	48 8b 45 d8          	mov    -0x28(%rbp),%rax
    4762:	48 89 d6             	mov    %rdx,%rsi
    4765:	48 89 c7             	mov    %rax,%rdi
    4768:	e8 9b 00 00 00       	call   4808 <_ZNSt7__cxx1112basic_stringIcSt11char_traitsIcESaIcEE11_M_capacityEm>
    476d:	eb 01                	jmp    4770 <_ZNSt7__cxx1112basic_stringIcSt11char_traitsIcESaIcEE7reserveEm+0xb0>
    476f:	90                   	nop
    4770:	48 8b 5d f8          	mov    -0x8(%rbp),%rbx
    4774:	c9                   	leave
    4775:	c3                   	ret

0000000000004776 <_ZNSt7__cxx1112basic_stringIcSt11char_traitsIcESaIcEE16_M_get_allocatorEv>:
    4776:	55                   	push   %rbp
    4777:	48 89 e5             	mov    %rsp,%rbp
    477a:	48 89 7d f8          	mov    %rdi,-0x8(%rbp)
    477e:	48 8b 45 f8          	mov    -0x8(%rbp),%rax
    4782:	5d                   	pop    %rbp
    4783:	c3                   	ret

0000000000004784 <_ZNKSt7__cxx1112basic_stringIcSt11char_traitsIcESaIcEE11_M_is_localEv>:
    4784:	55                   	push   %rbp
    4785:	48 89 e5             	mov    %rsp,%rbp
    4788:	53                   	push   %rbx
    4789:	48 83 ec 18          	sub    $0x18,%rsp
    478d:	48 89 7d e8          	mov    %rdi,-0x18(%rbp)
    4791:	48 8b 45 e8          	mov    -0x18(%rbp),%rax
    4795:	48 89 c7             	mov    %rax,%rdi
    4798:	e8 01 fe ff ff       	call   459e <_ZNKSt7__cxx1112basic_stringIcSt11char_traitsIcESaIcEE7_M_dataEv>
    479d:	48 89 c3             	mov    %rax,%rbx
    47a0:	48 8b 45 e8          	mov    -0x18(%rbp),%rax
    47a4:	48 89 c7             	mov    %rax,%rdi
    47a7:	e8 02 07 00 00       	call   4eae <_ZNKSt7__cxx1112basic_stringIcSt11char_traitsIcESaIcEE13_M_local_dataEv>
    47ac:	48 39 c3             	cmp    %rax,%rbx
    47af:	0f 94 c0             	sete   %al
    47b2:	84 c0                	test   %al,%al
    47b4:	74 13                	je     47c9 <_ZNKSt7__cxx1112basic_stringIcSt11char_traitsIcESaIcEE11_M_is_localEv+0x45>
    47b6:	48 8b 45 e8          	mov    -0x18(%rbp),%rax
    47ba:	48 8b 40 08          	mov    0x8(%rax),%rax
    47be:	48 83 f8 0f          	cmp    $0xf,%rax
    47c2:	b8 01 00 00 00       	mov    $0x1,%eax
    47c7:	eb 05                	jmp    47ce <_ZNKSt7__cxx1112basic_stringIcSt11char_traitsIcESaIcEE11_M_is_localEv+0x4a>
    47c9:	b8 00 00 00 00       	mov    $0x0,%eax
    47ce:	48 8b 5d f8          	mov    -0x8(%rbp),%rbx
    47d2:	c9                   	leave
    47d3:	c3                   	ret

00000000000047d4 <_ZNKSt7__cxx1112basic_stringIcSt11char_traitsIcESaIcEE6lengthEv>:
    47d4:	55                   	push   %rbp
    47d5:	48 89 e5             	mov    %rsp,%rbp
    47d8:	48 83 ec 10          	sub    $0x10,%rsp
    47dc:	48 89 7d f8          	mov    %rdi,-0x8(%rbp)
    47e0:	48 8b 45 f8          	mov    -0x8(%rbp),%rax
    47e4:	48 89 c7             	mov    %rax,%rdi
    47e7:	e8 6e 00 00 00       	call   485a <_ZNKSt7__cxx1112basic_stringIcSt11char_traitsIcESaIcEE4sizeEv>
    47ec:	c9                   	leave
    47ed:	c3                   	ret

00000000000047ee <_ZNSt7__cxx1112basic_stringIcSt11char_traitsIcESaIcEE7_M_dataEPc>:
    47ee:	55                   	push   %rbp
    47ef:	48 89 e5             	mov    %rsp,%rbp
    47f2:	48 89 7d f8          	mov    %rdi,-0x8(%rbp)
    47f6:	48 89 75 f0          	mov    %rsi,-0x10(%rbp)
    47fa:	48 8b 45 f8          	mov    -0x8(%rbp),%rax
    47fe:	48 8b 55 f0          	mov    -0x10(%rbp),%rdx
    4802:	48 89 10             	mov    %rdx,(%rax)
    4805:	90                   	nop
    4806:	5d                   	pop    %rbp
    4807:	c3                   	ret

0000000000004808 <_ZNSt7__cxx1112basic_stringIcSt11char_traitsIcESaIcEE11_M_capacityEm>:
    4808:	55                   	push   %rbp
    4809:	48 89 e5             	mov    %rsp,%rbp
    480c:	48 89 7d f8          	mov    %rdi,-0x8(%rbp)
    4810:	48 89 75 f0          	mov    %rsi,-0x10(%rbp)
    4814:	48 8b 45 f8          	mov    -0x8(%rbp),%rax
    4818:	48 8b 55 f0          	mov    -0x10(%rbp),%rdx
    481c:	48 89 50 10          	mov    %rdx,0x10(%rax)
    4820:	90                   	nop
    4821:	5d                   	pop    %rbp
    4822:	c3                   	ret
    4823:	90                   	nop

0000000000004824 <_ZNSt7__cxx1112basic_stringIcSt11char_traitsIcESaIcEE9_M_lengthEm>:
    4824:	55                   	push   %rbp
    4825:	48 89 e5             	mov    %rsp,%rbp
    4828:	48 89 7d f8          	mov    %rdi,-0x8(%rbp)
    482c:	48 89 75 f0          	mov    %rsi,-0x10(%rbp)
    4830:	48 8b 45 f8          	mov    -0x8(%rbp),%rax
    4834:	48 8b 55 f0          	mov    -0x10(%rbp),%rdx
    4838:	48 89 50 08          	mov    %rdx,0x8(%rax)
    483c:	90                   	nop
    483d:	5d                   	pop    %rbp
    483e:	c3                   	ret
    483f:	90                   	nop

0000000000004840 <_ZNKSt7__cxx1112basic_stringIcSt11char_traitsIcESaIcEE4dataEv>:
    4840:	55                   	push   %rbp
    4841:	48 89 e5             	mov    %rsp,%rbp
    4844:	48 83 ec 10          	sub    $0x10,%rsp
    4848:	48 89 7d f8          	mov    %rdi,-0x8(%rbp)
    484c:	48 8b 45 f8          	mov    -0x8(%rbp),%rax
    4850:	48 89 c7             	mov    %rax,%rdi
    4853:	e8 46 fd ff ff       	call   459e <_ZNKSt7__cxx1112basic_stringIcSt11char_traitsIcESaIcEE7_M_dataEv>
    4858:	c9                   	leave
    4859:	c3                   	ret

000000000000485a <_ZNKSt7__cxx1112basic_stringIcSt11char_traitsIcESaIcEE4sizeEv>:
    485a:	55                   	push   %rbp
    485b:	48 89 e5             	mov    %rsp,%rbp
    485e:	48 83 ec 20          	sub    $0x20,%rsp
    4862:	48 89 7d e8          	mov    %rdi,-0x18(%rbp)
    4866:	48 8b 45 e8          	mov    -0x18(%rbp),%rax
    486a:	48 8b 40 08          	mov    0x8(%rax),%rax
    486e:	48 89 45 f8          	mov    %rax,-0x8(%rbp)
    4872:	48 8b 45 e8          	mov    -0x18(%rbp),%rax
    4876:	48 89 c7             	mov    %rax,%rdi
    4879:	e8 7a 06 00 00       	call   4ef8 <_ZNKSt7__cxx1112basic_stringIcSt11char_traitsIcESaIcEE8max_sizeEv>
    487e:	48 3b 45 f8          	cmp    -0x8(%rbp),%rax
    4882:	0f 92 c0             	setb   %al
    4885:	84 c0                	test   %al,%al
    4887:	48 8b 45 f8          	mov    -0x8(%rbp),%rax
    488b:	c9                   	leave
    488c:	c3                   	ret
    488d:	90                   	nop

000000000000488e <_ZNSt15__new_allocatorIcED1Ev>:
    488e:	55                   	push   %rbp
    488f:	48 89 e5             	mov    %rsp,%rbp
    4892:	48 89 7d f8          	mov    %rdi,-0x8(%rbp)
    4896:	90                   	nop
    4897:	5d                   	pop    %rbp
    4898:	c3                   	ret
    4899:	90                   	nop

000000000000489a <_ZNSt7__cxx1112basic_stringIcSt11char_traitsIcESaIcEE12_Alloc_hiderC1EPcRKS3_>:
    489a:	55                   	push   %rbp
    489b:	48 89 e5             	mov    %rsp,%rbp
    489e:	48 89 7d d8          	mov    %rdi,-0x28(%rbp)
    48a2:	48 89 75 d0          	mov    %rsi,-0x30(%rbp)
    48a6:	48 89 55 c8          	mov    %rdx,-0x38(%rbp)
    48aa:	48 8b 45 d8          	mov    -0x28(%rbp),%rax
    48ae:	48 89 45 e0          	mov    %rax,-0x20(%rbp)
    48b2:	48 8b 45 c8          	mov    -0x38(%rbp),%rax
    48b6:	48 89 45 e8          	mov    %rax,-0x18(%rbp)
    48ba:	48 8b 45 e0          	mov    -0x20(%rbp),%rax
    48be:	48 89 45 f0          	mov    %rax,-0x10(%rbp)
    48c2:	48 8b 45 e8          	mov    -0x18(%rbp),%rax
    48c6:	48 89 45 f8          	mov    %rax,-0x8(%rbp)
    48ca:	90                   	nop
    48cb:	90                   	nop
    48cc:	48 8b 45 d8          	mov    -0x28(%rbp),%rax
    48d0:	48 8b 55 d0          	mov    -0x30(%rbp),%rdx
    48d4:	48 89 10             	mov    %rdx,(%rax)
    48d7:	90                   	nop
    48d8:	5d                   	pop    %rbp
    48d9:	c3                   	ret

00000000000048da <_ZZNSt7__cxx1112basic_stringIcSt11char_traitsIcESaIcEE12_M_constructIPKcEEvT_S8_St20forward_iterator_tagEN6_GuardC1EPS4_>:
    48da:	55                   	push   %rbp
    48db:	48 89 e5             	mov    %rsp,%rbp
    48de:	48 89 7d f8          	mov    %rdi,-0x8(%rbp)
    48e2:	48 89 75 f0          	mov    %rsi,-0x10(%rbp)
    48e6:	48 8b 45 f8          	mov    -0x8(%rbp),%rax
    48ea:	48 8b 55 f0          	mov    -0x10(%rbp),%rdx
    48ee:	48 89 10             	mov    %rdx,(%rax)
    48f1:	90                   	nop
    48f2:	5d                   	pop    %rbp
    48f3:	c3                   	ret

00000000000048f4 <_ZZNSt7__cxx1112basic_stringIcSt11char_traitsIcESaIcEE12_M_constructIPKcEEvT_S8_St20forward_iterator_tagEN6_GuardD1Ev>:
    48f4:	55                   	push   %rbp
    48f5:	48 89 e5             	mov    %rsp,%rbp
    48f8:	48 83 ec 10          	sub    $0x10,%rsp
    48fc:	48 89 7d f8          	mov    %rdi,-0x8(%rbp)
    4900:	48 8b 45 f8          	mov    -0x8(%rbp),%rax
    4904:	48 8b 00             	mov    (%rax),%rax
    4907:	48 85 c0             	test   %rax,%rax
    490a:	74 0f                	je     491b <_ZZNSt7__cxx1112basic_stringIcSt11char_traitsIcESaIcEE12_M_constructIPKcEEvT_S8_St20forward_iterator_tagEN6_GuardD1Ev+0x27>
    490c:	48 8b 45 f8          	mov    -0x8(%rbp),%rax
    4910:	48 8b 00             	mov    (%rax),%rax
    4913:	48 89 c7             	mov    %rax,%rdi
    4916:	e8 6b fd ff ff       	call   4686 <_ZNSt7__cxx1112basic_stringIcSt11char_traitsIcESaIcEE10_M_disposeEv>
    491b:	90                   	nop
    491c:	c9                   	leave
    491d:	c3                   	ret

000000000000491e <_ZNSt7__cxx1112basic_stringIcSt11char_traitsIcESaIcEE12_M_constructIPKcEEvT_S8_St20forward_iterator_tag>:
    491e:	55                   	push   %rbp
    491f:	48 89 e5             	mov    %rsp,%rbp
    4922:	48 83 ec 60          	sub    $0x60,%rsp
    4926:	48 89 7d b8          	mov    %rdi,-0x48(%rbp)
    492a:	48 89 75 b0          	mov    %rsi,-0x50(%rbp)
    492e:	48 89 55 a8          	mov    %rdx,-0x58(%rbp)
    4932:	64 48 8b 04 25 28 00 	mov    %fs:0x28,%rax
    4939:	00 00 
    493b:	48 89 45 f8          	mov    %rax,-0x8(%rbp)
    493f:	31 c0                	xor    %eax,%eax
    4941:	48 8b 45 b0          	mov    -0x50(%rbp),%rax
    4945:	48 89 45 d0          	mov    %rax,-0x30(%rbp)
    4949:	48 8b 45 a8          	mov    -0x58(%rbp),%rax
    494d:	48 89 45 d8          	mov    %rax,-0x28(%rbp)
    4951:	90                   	nop
    4952:	48 8b 45 d0          	mov    -0x30(%rbp),%rax
    4956:	48 89 45 e0          	mov    %rax,-0x20(%rbp)
    495a:	48 8b 45 d8          	mov    -0x28(%rbp),%rax
    495e:	48 89 45 e8          	mov    %rax,-0x18(%rbp)
    4962:	48 8b 45 e8          	mov    -0x18(%rbp),%rax
    4966:	48 2b 45 e0          	sub    -0x20(%rbp),%rax
    496a:	90                   	nop
    496b:	48 89 45 c8          	mov    %rax,-0x38(%rbp)
    496f:	48 8b 45 c8          	mov    -0x38(%rbp),%rax
    4973:	48 83 f8 0f          	cmp    $0xf,%rax
    4977:	76 3f                	jbe    49b8 <_ZNSt7__cxx1112basic_stringIcSt11char_traitsIcESaIcEE12_M_constructIPKcEEvT_S8_St20forward_iterator_tag+0x9a>
    4979:	48 8d 4d c8          	lea    -0x38(%rbp),%rcx
    497d:	48 8b 45 b8          	mov    -0x48(%rbp),%rax
    4981:	ba 00 00 00 00       	mov    $0x0,%edx
    4986:	48 89 ce             	mov    %rcx,%rsi
    4989:	48 89 c7             	mov    %rax,%rdi
    498c:	e8 0b 04 00 00       	call   4d9c <_ZNSt7__cxx1112basic_stringIcSt11char_traitsIcESaIcEE9_M_createERmm>
    4991:	48 89 c2             	mov    %rax,%rdx
    4994:	48 8b 45 b8          	mov    -0x48(%rbp),%rax
    4998:	48 89 d6             	mov    %rdx,%rsi
    499b:	48 89 c7             	mov    %rax,%rdi
    499e:	e8 4b fe ff ff       	call   47ee <_ZNSt7__cxx1112basic_stringIcSt11char_traitsIcESaIcEE7_M_dataEPc>
    49a3:	48 8b 55 c8          	mov    -0x38(%rbp),%rdx
    49a7:	48 8b 45 b8          	mov    -0x48(%rbp),%rax
    49ab:	48 89 d6             	mov    %rdx,%rsi
    49ae:	48 89 c7             	mov    %rax,%rdi
    49b1:	e8 52 fe ff ff       	call   4808 <_ZNSt7__cxx1112basic_stringIcSt11char_traitsIcESaIcEE11_M_capacityEm>
    49b6:	eb 09                	jmp    49c1 <_ZNSt7__cxx1112basic_stringIcSt11char_traitsIcESaIcEE12_M_constructIPKcEEvT_S8_St20forward_iterator_tag+0xa3>
    49b8:	48 8b 45 b8          	mov    -0x48(%rbp),%rax
    49bc:	48 89 45 f0          	mov    %rax,-0x10(%rbp)
    49c0:	90                   	nop
    49c1:	48 8b 55 b8          	mov    -0x48(%rbp),%rdx
    49c5:	48 8d 45 d0          	lea    -0x30(%rbp),%rax
    49c9:	48 89 d6             	mov    %rdx,%rsi
    49cc:	48 89 c7             	mov    %rax,%rdi
    49cf:	e8 06 ff ff ff       	call   48da <_ZZNSt7__cxx1112basic_stringIcSt11char_traitsIcESaIcEE12_M_constructIPKcEEvT_S8_St20forward_iterator_tagEN6_GuardC1EPS4_>
    49d4:	48 8b 45 b8          	mov    -0x48(%rbp),%rax
    49d8:	48 89 c7             	mov    %rax,%rdi
    49db:	e8 be fb ff ff       	call   459e <_ZNKSt7__cxx1112basic_stringIcSt11char_traitsIcESaIcEE7_M_dataEv>
    49e0:	48 89 c1             	mov    %rax,%rcx
    49e3:	48 8b 55 a8          	mov    -0x58(%rbp),%rdx
    49e7:	48 8b 45 b0          	mov    -0x50(%rbp),%rax
    49eb:	48 89 c6             	mov    %rax,%rsi
    49ee:	48 89 cf             	mov    %rcx,%rdi
    49f1:	e8 8b 05 00 00       	call   4f81 <_ZNSt7__cxx1112basic_stringIcSt11char_traitsIcESaIcEE13_S_copy_charsIPKcEEvPcT_S9_>
    49f6:	48 c7 45 d0 00 00 00 	movq   $0x0,-0x30(%rbp)
    49fd:	00 
    49fe:	48 8b 55 c8          	mov    -0x38(%rbp),%rdx
    4a02:	48 8b 45 b8          	mov    -0x48(%rbp),%rax
    4a06:	48 89 d6             	mov    %rdx,%rsi
    4a09:	48 89 c7             	mov    %rax,%rdi
    4a0c:	e8 05 fc ff ff       	call   4616 <_ZNSt7__cxx1112basic_stringIcSt11char_traitsIcESaIcEE13_M_set_lengthEm>
    4a11:	48 8d 45 d0          	lea    -0x30(%rbp),%rax
    4a15:	48 89 c7             	mov    %rax,%rdi
    4a18:	e8 d7 fe ff ff       	call   48f4 <_ZZNSt7__cxx1112basic_stringIcSt11char_traitsIcESaIcEE12_M_constructIPKcEEvT_S8_St20forward_iterator_tagEN6_GuardD1Ev>
    4a1d:	48 8b 45 f8          	mov    -0x8(%rbp),%rax
    4a21:	64 48 2b 04 25 28 00 	sub    %fs:0x28,%rax
    4a28:	00 00 
    4a2a:	74 05                	je     4a31 <_ZNSt7__cxx1112basic_stringIcSt11char_traitsIcESaIcEE12_M_constructIPKcEEvT_S8_St20forward_iterator_tag+0x113>
    4a2c:	e8 2f e7 ff ff       	call   3160 <__stack_chk_fail@plt>
    4a31:	c9                   	leave
    4a32:	c3                   	ret
    4a33:	90                   	nop

0000000000004a34 <_ZNKSt7__cxx1112basic_stringIcSt11char_traitsIcESaIcEE13get_allocatorEv>:
    4a34:	55                   	push   %rbp
    4a35:	48 89 e5             	mov    %rsp,%rbp
    4a38:	48 83 ec 30          	sub    $0x30,%rsp
    4a3c:	48 89 7d d8          	mov    %rdi,-0x28(%rbp)
    4a40:	48 89 75 d0          	mov    %rsi,-0x30(%rbp)
    4a44:	48 8b 45 d0          	mov    -0x30(%rbp),%rax
    4a48:	48 89 c7             	mov    %rax,%rdi
    4a4b:	e8 6e 05 00 00       	call   4fbe <_ZNKSt7__cxx1112basic_stringIcSt11char_traitsIcESaIcEE16_M_get_allocatorEv>
    4a50:	48 8b 55 d8          	mov    -0x28(%rbp),%rdx
    4a54:	48 89 55 e0          	mov    %rdx,-0x20(%rbp)
    4a58:	48 89 45 e8          	mov    %rax,-0x18(%rbp)
    4a5c:	48 8b 45 e0          	mov    -0x20(%rbp),%rax
    4a60:	48 89 45 f0          	mov    %rax,-0x10(%rbp)
    4a64:	48 8b 45 e8          	mov    -0x18(%rbp),%rax
    4a68:	48 89 45 f8          	mov    %rax,-0x8(%rbp)
    4a6c:	90                   	nop
    4a6d:	90                   	nop
    4a6e:	90                   	nop
    4a6f:	48 8b 45 d8          	mov    -0x28(%rbp),%rax
    4a73:	c9                   	leave
    4a74:	c3                   	ret

0000000000004a75 <_ZSt12__str_concatINSt7__cxx1112basic_stringIcSt11char_traitsIcESaIcEEEET_PKNS6_10value_typeENS6_9size_typeES9_SA_RKNS6_14allocator_typeE>:
    4a75:	55                   	push   %rbp
    4a76:	48 89 e5             	mov    %rsp,%rbp
    4a79:	53                   	push   %rbx
    4a7a:	48 83 ec 78          	sub    $0x78,%rsp
    4a7e:	48 89 7d a8          	mov    %rdi,-0x58(%rbp)
    4a82:	48 89 75 a0          	mov    %rsi,-0x60(%rbp)
    4a86:	48 89 55 98          	mov    %rdx,-0x68(%rbp)
    4a8a:	48 89 4d 90          	mov    %rcx,-0x70(%rbp)
    4a8e:	4c 89 45 88          	mov    %r8,-0x78(%rbp)
    4a92:	4c 89 4d 80          	mov    %r9,-0x80(%rbp)
    4a96:	64 48 8b 04 25 28 00 	mov    %fs:0x28,%rax
    4a9d:	00 00 
    4a9f:	48 89 45 e8          	mov    %rax,-0x18(%rbp)
    4aa3:	31 c0                	xor    %eax,%eax
    4aa5:	48 8b 45 80          	mov    -0x80(%rbp),%rax
    4aa9:	48 89 45 b8          	mov    %rax,-0x48(%rbp)
    4aad:	48 8d 45 b7          	lea    -0x49(%rbp),%rax
    4ab1:	48 8b 55 b8          	mov    -0x48(%rbp),%rdx
    4ab5:	48 89 55 c0          	mov    %rdx,-0x40(%rbp)
    4ab9:	48 89 45 c8          	mov    %rax,-0x38(%rbp)
    4abd:	48 8b 45 c0          	mov    -0x40(%rbp),%rax
    4ac1:	48 89 45 d0          	mov    %rax,-0x30(%rbp)
    4ac5:	48 8b 45 c8          	mov    -0x38(%rbp),%rax
    4ac9:	48 89 45 d8          	mov    %rax,-0x28(%rbp)
    4acd:	48 8b 45 d0          	mov    -0x30(%rbp),%rax
    4ad1:	48 89 45 e0          	mov    %rax,-0x20(%rbp)
    4ad5:	90                   	nop
    4ad6:	90                   	nop
    4ad7:	90                   	nop
    4ad8:	90                   	nop
    4ad9:	48 8d 55 b7          	lea    -0x49(%rbp),%rdx
    4add:	48 8b 45 a8          	mov    -0x58(%rbp),%rax
    4ae1:	48 89 d6             	mov    %rdx,%rsi
    4ae4:	48 89 c7             	mov    %rax,%rdi
    4ae7:	e8 e0 04 00 00       	call   4fcc <_ZNSt7__cxx1112basic_stringIcSt11char_traitsIcESaIcEEC1ERKS3_>
    4aec:	48 8d 45 b7          	lea    -0x49(%rbp),%rax
    4af0:	48 89 c7             	mov    %rax,%rdi
    4af3:	e8 96 fd ff ff       	call   488e <_ZNSt15__new_allocatorIcED1Ev>
    4af8:	90                   	nop
    4af9:	48 8b 55 98          	mov    -0x68(%rbp),%rdx
    4afd:	48 8b 45 88          	mov    -0x78(%rbp),%rax
    4b01:	48 01 c2             	add    %rax,%rdx
    4b04:	48 8b 45 a8          	mov    -0x58(%rbp),%rax
    4b08:	48 89 d6             	mov    %rdx,%rsi
    4b0b:	48 89 c7             	mov    %rax,%rdi
    4b0e:	e8 ad fb ff ff       	call   46c0 <_ZNSt7__cxx1112basic_stringIcSt11char_traitsIcESaIcEE7reserveEm>
    4b13:	48 8b 55 98          	mov    -0x68(%rbp),%rdx
    4b17:	48 8b 4d a0          	mov    -0x60(%rbp),%rcx
    4b1b:	48 8b 45 a8          	mov    -0x58(%rbp),%rax
    4b1f:	48 89 ce             	mov    %rcx,%rsi
    4b22:	48 89 c7             	mov    %rax,%rdi
    4b25:	e8 fa 04 00 00       	call   5024 <_ZNSt7__cxx1112basic_stringIcSt11char_traitsIcESaIcEE6appendEPKcm>
    4b2a:	48 8b 55 88          	mov    -0x78(%rbp),%rdx
    4b2e:	48 8b 4d 90          	mov    -0x70(%rbp),%rcx
    4b32:	48 8b 45 a8          	mov    -0x58(%rbp),%rax
    4b36:	48 89 ce             	mov    %rcx,%rsi
    4b39:	48 89 c7             	mov    %rax,%rdi
    4b3c:	e8 e3 04 00 00       	call   5024 <_ZNSt7__cxx1112basic_stringIcSt11char_traitsIcESaIcEE6appendEPKcm>
    4b41:	48 8b 45 e8          	mov    -0x18(%rbp),%rax
    4b45:	64 48 2b 04 25 28 00 	sub    %fs:0x28,%rax
    4b4c:	00 00 
    4b4e:	74 35                	je     4b85 <_ZSt12__str_concatINSt7__cxx1112basic_stringIcSt11char_traitsIcESaIcEEEET_PKNS6_10value_typeENS6_9size_typeES9_SA_RKNS6_14allocator_typeE+0x110>
    4b50:	eb 2e                	jmp    4b80 <_ZSt12__str_concatINSt7__cxx1112basic_stringIcSt11char_traitsIcESaIcEEEET_PKNS6_10value_typeENS6_9size_typeES9_SA_RKNS6_14allocator_typeE+0x10b>
    4b52:	48 89 c3             	mov    %rax,%rbx
    4b55:	48 8b 45 a8          	mov    -0x58(%rbp),%rax
    4b59:	48 89 c7             	mov    %rax,%rdi
    4b5c:	e8 4b f5 ff ff       	call   40ac <_ZNSt7__cxx1112basic_stringIcSt11char_traitsIcESaIcEED1Ev>
    4b61:	48 89 d8             	mov    %rbx,%rax
    4b64:	48 8b 55 e8          	mov    -0x18(%rbp),%rdx
    4b68:	64 48 2b 14 25 28 00 	sub    %fs:0x28,%rdx
    4b6f:	00 00 
    4b71:	74 05                	je     4b78 <_ZSt12__str_concatINSt7__cxx1112basic_stringIcSt11char_traitsIcESaIcEEEET_PKNS6_10value_typeENS6_9size_typeES9_SA_RKNS6_14allocator_typeE+0x103>
    4b73:	e8 e8 e5 ff ff       	call   3160 <__stack_chk_fail@plt>
    4b78:	48 89 c7             	mov    %rax,%rdi
    4b7b:	e8 00 e7 ff ff       	call   3280 <_Unwind_Resume@plt>
    4b80:	e8 db e5 ff ff       	call   3160 <__stack_chk_fail@plt>
    4b85:	48 8b 45 a8          	mov    -0x58(%rbp),%rax
    4b89:	48 8b 5d f8          	mov    -0x8(%rbp),%rbx
    4b8d:	c9                   	leave
    4b8e:	c3                   	ret
    4b8f:	90                   	nop

0000000000004b90 <_ZNSt7__cxx1112basic_stringIcSt11char_traitsIcESaIcEE6appendEPKc>:
    4b90:	55                   	push   %rbp
    4b91:	48 89 e5             	mov    %rsp,%rbp
    4b94:	48 83 ec 20          	sub    $0x20,%rsp
    4b98:	48 89 7d e8          	mov    %rdi,-0x18(%rbp)
    4b9c:	48 89 75 e0          	mov    %rsi,-0x20(%rbp)
    4ba0:	48 8b 45 e0          	mov    -0x20(%rbp),%rax
    4ba4:	48 89 c7             	mov    %rax,%rdi
    4ba7:	e8 e4 f3 ff ff       	call   3f90 <_ZNSt11char_traitsIcE6lengthEPKc>
    4bac:	48 89 45 f8          	mov    %rax,-0x8(%rbp)
    4bb0:	48 8d 0d eb 46 00 00 	lea    0x46eb(%rip),%rcx        # 92a2 <_IO_stdin_used+0x2a2>
    4bb7:	48 8b 55 f8          	mov    -0x8(%rbp),%rdx
    4bbb:	48 8b 45 e8          	mov    -0x18(%rbp),%rax
    4bbf:	be 00 00 00 00       	mov    $0x0,%esi
    4bc4:	48 89 c7             	mov    %rax,%rdi
    4bc7:	e8 a2 04 00 00       	call   506e <_ZNKSt7__cxx1112basic_stringIcSt11char_traitsIcESaIcEE15_M_check_lengthEmmPKc>
    4bcc:	48 8b 55 f8          	mov    -0x8(%rbp),%rdx
    4bd0:	48 8b 4d e0          	mov    -0x20(%rbp),%rcx
    4bd4:	48 8b 45 e8          	mov    -0x18(%rbp),%rax
    4bd8:	48 89 ce             	mov    %rcx,%rsi
    4bdb:	48 89 c7             	mov    %rax,%rdi
    4bde:	e8 e9 04 00 00       	call   50cc <_ZNSt7__cxx1112basic_stringIcSt11char_traitsIcESaIcEE9_M_appendEPKcm>
    4be3:	c9                   	leave
    4be4:	c3                   	ret
    4be5:	90                   	nop

0000000000004be6 <_ZNSt7__cxx1112basic_stringIcSt11char_traitsIcESaIcEE6appendERKS4_>:
    4be6:	55                   	push   %rbp
    4be7:	48 89 e5             	mov    %rsp,%rbp
    4bea:	53                   	push   %rbx
    4beb:	48 83 ec 18          	sub    $0x18,%rsp
    4bef:	48 89 7d e8          	mov    %rdi,-0x18(%rbp)
    4bf3:	48 89 75 e0          	mov    %rsi,-0x20(%rbp)
    4bf7:	48 8b 45 e0          	mov    -0x20(%rbp),%rax
    4bfb:	48 89 c7             	mov    %rax,%rdi
    4bfe:	e8 57 fc ff ff       	call   485a <_ZNKSt7__cxx1112basic_stringIcSt11char_traitsIcESaIcEE4sizeEv>
    4c03:	48 89 c3             	mov    %rax,%rbx
    4c06:	48 8b 45 e0          	mov    -0x20(%rbp),%rax
    4c0a:	48 89 c7             	mov    %rax,%rdi
    4c0d:	e8 8c f9 ff ff       	call   459e <_ZNKSt7__cxx1112basic_stringIcSt11char_traitsIcESaIcEE7_M_dataEv>
    4c12:	48 89 c1             	mov    %rax,%rcx
    4c15:	48 8b 45 e8          	mov    -0x18(%rbp),%rax
    4c19:	48 89 da             	mov    %rbx,%rdx
    4c1c:	48 89 ce             	mov    %rcx,%rsi
    4c1f:	48 89 c7             	mov    %rax,%rdi
    4c22:	e8 fd 03 00 00       	call   5024 <_ZNSt7__cxx1112basic_stringIcSt11char_traitsIcESaIcEE6appendEPKcm>
    4c27:	48 8b 5d f8          	mov    -0x8(%rbp),%rbx
    4c2b:	c9                   	leave
    4c2c:	c3                   	ret
    4c2d:	90                   	nop

0000000000004c2e <_ZNSt12_Vector_baseISt4pairIiNSt7__cxx1112basic_stringIcSt11char_traitsIcESaIcEEEESaIS7_EE12_Vector_implD1Ev>:
    4c2e:	55                   	push   %rbp
    4c2f:	48 89 e5             	mov    %rsp,%rbp
    4c32:	48 83 ec 20          	sub    $0x20,%rsp
    4c36:	48 89 7d e8          	mov    %rdi,-0x18(%rbp)
    4c3a:	48 8b 45 e8          	mov    -0x18(%rbp),%rax
    4c3e:	48 89 45 f8          	mov    %rax,-0x8(%rbp)
    4c42:	48 8b 45 f8          	mov    -0x8(%rbp),%rax
    4c46:	48 89 c7             	mov    %rax,%rdi
    4c49:	e8 9a 07 00 00       	call   53e8 <_ZNSt15__new_allocatorISt4pairIiNSt7__cxx1112basic_stringIcSt11char_traitsIcESaIcEEEEED1Ev>
    4c4e:	90                   	nop
    4c4f:	90                   	nop
    4c50:	c9                   	leave
    4c51:	c3                   	ret

0000000000004c52 <_ZNSt12_Vector_baseISt4pairIiNSt7__cxx1112basic_stringIcSt11char_traitsIcESaIcEEEESaIS7_EED1Ev>:
    4c52:	55                   	push   %rbp
    4c53:	48 89 e5             	mov    %rsp,%rbp
    4c56:	48 83 ec 10          	sub    $0x10,%rsp
    4c5a:	48 89 7d f8          	mov    %rdi,-0x8(%rbp)
    4c5e:	48 8b 45 f8          	mov    -0x8(%rbp),%rax
    4c62:	48 8b 50 10          	mov    0x10(%rax),%rdx
    4c66:	48 8b 45 f8          	mov    -0x8(%rbp),%rax
    4c6a:	48 8b 00             	mov    (%rax),%rax
    4c6d:	48 29 c2             	sub    %rax,%rdx
    4c70:	48 c1 fa 03          	sar    $0x3,%rdx
    4c74:	48 b8 cd cc cc cc cc 	movabs $0xcccccccccccccccd,%rax
    4c7b:	cc cc cc 
    4c7e:	48 0f af c2          	imul   %rdx,%rax
    4c82:	48 89 c2             	mov    %rax,%rdx
    4c85:	48 8b 45 f8          	mov    -0x8(%rbp),%rax
    4c89:	48 8b 08             	mov    (%rax),%rcx
    4c8c:	48 8b 45 f8          	mov    -0x8(%rbp),%rax
    4c90:	48 89 ce             	mov    %rcx,%rsi
    4c93:	48 89 c7             	mov    %rax,%rdi
    4c96:	e8 fb 04 00 00       	call   5196 <_ZNSt12_Vector_baseISt4pairIiNSt7__cxx1112basic_stringIcSt11char_traitsIcESaIcEEEESaIS7_EE13_M_deallocateEPS7_m>
    4c9b:	48 8b 45 f8          	mov    -0x8(%rbp),%rax
    4c9f:	48 89 c7             	mov    %rax,%rdi
    4ca2:	e8 87 ff ff ff       	call   4c2e <_ZNSt12_Vector_baseISt4pairIiNSt7__cxx1112basic_stringIcSt11char_traitsIcESaIcEEEESaIS7_EE12_Vector_implD1Ev>
    4ca7:	90                   	nop
    4ca8:	c9                   	leave
    4ca9:	c3                   	ret

0000000000004caa <_ZNSt12_Vector_baseISt4pairIiNSt7__cxx1112basic_stringIcSt11char_traitsIcESaIcEEEESaIS7_EE19_M_get_Tp_allocatorEv>:
    4caa:	55                   	push   %rbp
    4cab:	48 89 e5             	mov    %rsp,%rbp
    4cae:	48 89 7d f8          	mov    %rdi,-0x8(%rbp)
    4cb2:	48 8b 45 f8          	mov    -0x8(%rbp),%rax
    4cb6:	5d                   	pop    %rbp
    4cb7:	c3                   	ret

0000000000004cb8 <_ZNSt19__ptr_traits_ptr_toIPccLb0EE10pointer_toERc>:
    4cb8:	55                   	push   %rbp
    4cb9:	48 89 e5             	mov    %rsp,%rbp
    4cbc:	48 89 7d e8          	mov    %rdi,-0x18(%rbp)
    4cc0:	48 8b 45 e8          	mov    -0x18(%rbp),%rax
    4cc4:	48 89 45 f0          	mov    %rax,-0x10(%rbp)
    4cc8:	48 8b 45 f0          	mov    -0x10(%rbp),%rax
    4ccc:	48 89 45 f8          	mov    %rax,-0x8(%rbp)
    4cd0:	48 8b 45 f8          	mov    -0x8(%rbp),%rax
    4cd4:	90                   	nop
    4cd5:	5d                   	pop    %rbp
    4cd6:	c3                   	ret
    4cd7:	90                   	nop

0000000000004cd8 <_ZNSt7__cxx1112basic_stringIcSt11char_traitsIcESaIcEE10_M_destroyEm>:
    4cd8:	55                   	push   %rbp
    4cd9:	48 89 e5             	mov    %rsp,%rbp
    4cdc:	41 54                	push   %r12
    4cde:	53                   	push   %rbx
    4cdf:	48 83 ec 30          	sub    $0x30,%rsp
    4ce3:	48 89 7d c8          	mov    %rdi,-0x38(%rbp)
    4ce7:	48 89 75 c0          	mov    %rsi,-0x40(%rbp)
    4ceb:	48 8b 45 c0          	mov    -0x40(%rbp),%rax
    4cef:	4c 8d 60 01          	lea    0x1(%rax),%r12
    4cf3:	48 8b 45 c8          	mov    -0x38(%rbp),%rax
    4cf7:	48 89 c7             	mov    %rax,%rdi
    4cfa:	e8 9f f8 ff ff       	call   459e <_ZNKSt7__cxx1112basic_stringIcSt11char_traitsIcESaIcEE7_M_dataEv>
    4cff:	48 89 c3             	mov    %rax,%rbx
    4d02:	48 8b 45 c8          	mov    -0x38(%rbp),%rax
    4d06:	48 89 c7             	mov    %rax,%rdi
    4d09:	e8 68 fa ff ff       	call   4776 <_ZNSt7__cxx1112basic_stringIcSt11char_traitsIcESaIcEE16_M_get_allocatorEv>
    4d0e:	48 89 45 d8          	mov    %rax,-0x28(%rbp)
    4d12:	48 89 5d e0          	mov    %rbx,-0x20(%rbp)
    4d16:	4c 89 65 e8          	mov    %r12,-0x18(%rbp)
    4d1a:	48 8b 55 e8          	mov    -0x18(%rbp),%rdx
    4d1e:	48 8b 4d e0          	mov    -0x20(%rbp),%rcx
    4d22:	48 8b 45 d8          	mov    -0x28(%rbp),%rax
    4d26:	48 89 ce             	mov    %rcx,%rsi
    4d29:	48 89 c7             	mov    %rax,%rdi
    4d2c:	e8 fd 06 00 00       	call   542e <_ZNSt15__new_allocatorIcE10deallocateEPcm>
    4d31:	90                   	nop
    4d32:	90                   	nop
    4d33:	48 83 c4 30          	add    $0x30,%rsp
    4d37:	5b                   	pop    %rbx
    4d38:	41 5c                	pop    %r12
    4d3a:	5d                   	pop    %rbp
    4d3b:	c3                   	ret

0000000000004d3c <_ZNKSt7__cxx1112basic_stringIcSt11char_traitsIcESaIcEE8capacityEv>:
    4d3c:	55                   	push   %rbp
    4d3d:	48 89 e5             	mov    %rsp,%rbp
    4d40:	48 83 ec 20          	sub    $0x20,%rsp
    4d44:	48 89 7d e8          	mov    %rdi,-0x18(%rbp)
    4d48:	48 8b 45 e8          	mov    -0x18(%rbp),%rax
    4d4c:	48 89 c7             	mov    %rax,%rdi
    4d4f:	e8 30 fa ff ff       	call   4784 <_ZNKSt7__cxx1112basic_stringIcSt11char_traitsIcESaIcEE11_M_is_localEv>
    4d54:	84 c0                	test   %al,%al
    4d56:	74 0a                	je     4d62 <_ZNKSt7__cxx1112basic_stringIcSt11char_traitsIcESaIcEE8capacityEv+0x26>
    4d58:	48 c7 45 f8 0f 00 00 	movq   $0xf,-0x8(%rbp)
    4d5f:	00 
    4d60:	eb 0c                	jmp    4d6e <_ZNKSt7__cxx1112basic_stringIcSt11char_traitsIcESaIcEE8capacityEv+0x32>
    4d62:	48 8b 45 e8          	mov    -0x18(%rbp),%rax
    4d66:	48 8b 40 10          	mov    0x10(%rax),%rax
    4d6a:	48 89 45 f8          	mov    %rax,-0x8(%rbp)
    4d6e:	48 83 7d f8 0e       	cmpq   $0xe,-0x8(%rbp)
    4d73:	76 12                	jbe    4d87 <_ZNKSt7__cxx1112basic_stringIcSt11char_traitsIcESaIcEE8capacityEv+0x4b>
    4d75:	48 8b 45 e8          	mov    -0x18(%rbp),%rax
    4d79:	48 89 c7             	mov    %rax,%rdi
    4d7c:	e8 77 01 00 00       	call   4ef8 <_ZNKSt7__cxx1112basic_stringIcSt11char_traitsIcESaIcEE8max_sizeEv>
    4d81:	48 3b 45 f8          	cmp    -0x8(%rbp),%rax
    4d85:	73 07                	jae    4d8e <_ZNKSt7__cxx1112basic_stringIcSt11char_traitsIcESaIcEE8capacityEv+0x52>
    4d87:	b8 01 00 00 00       	mov    $0x1,%eax
    4d8c:	eb 05                	jmp    4d93 <_ZNKSt7__cxx1112basic_stringIcSt11char_traitsIcESaIcEE8capacityEv+0x57>
    4d8e:	b8 00 00 00 00       	mov    $0x0,%eax
    4d93:	84 c0                	test   %al,%al
    4d95:	48 8b 45 f8          	mov    -0x8(%rbp),%rax
    4d99:	c9                   	leave
    4d9a:	c3                   	ret
    4d9b:	90                   	nop

0000000000004d9c <_ZNSt7__cxx1112basic_stringIcSt11char_traitsIcESaIcEE9_M_createERmm>:
    4d9c:	55                   	push   %rbp
    4d9d:	48 89 e5             	mov    %rsp,%rbp
    4da0:	53                   	push   %rbx
    4da1:	48 83 ec 28          	sub    $0x28,%rsp
    4da5:	48 89 7d e8          	mov    %rdi,-0x18(%rbp)
    4da9:	48 89 75 e0          	mov    %rsi,-0x20(%rbp)
    4dad:	48 89 55 d8          	mov    %rdx,-0x28(%rbp)
    4db1:	48 8b 45 e0          	mov    -0x20(%rbp),%rax
    4db5:	48 8b 18             	mov    (%rax),%rbx
    4db8:	48 8b 45 e8          	mov    -0x18(%rbp),%rax
    4dbc:	48 89 c7             	mov    %rax,%rdi
    4dbf:	e8 34 01 00 00       	call   4ef8 <_ZNKSt7__cxx1112basic_stringIcSt11char_traitsIcESaIcEE8max_sizeEv>
    4dc4:	48 39 d8             	cmp    %rbx,%rax
    4dc7:	0f 92 c0             	setb   %al
    4dca:	84 c0                	test   %al,%al
    4dcc:	74 0f                	je     4ddd <_ZNSt7__cxx1112basic_stringIcSt11char_traitsIcESaIcEE9_M_createERmm+0x41>
    4dce:	48 8d 05 e2 44 00 00 	lea    0x44e2(%rip),%rax        # 92b7 <_IO_stdin_used+0x2b7>
    4dd5:	48 89 c7             	mov    %rax,%rdi
    4dd8:	e8 93 e4 ff ff       	call   3270 <_ZSt20__throw_length_errorPKc@plt>
    4ddd:	48 8b 45 e0          	mov    -0x20(%rbp),%rax
    4de1:	48 8b 00             	mov    (%rax),%rax
    4de4:	48 39 45 d8          	cmp    %rax,-0x28(%rbp)
    4de8:	73 52                	jae    4e3c <_ZNSt7__cxx1112basic_stringIcSt11char_traitsIcESaIcEE9_M_createERmm+0xa0>
    4dea:	48 8b 45 e0          	mov    -0x20(%rbp),%rax
    4dee:	48 8b 10             	mov    (%rax),%rdx
    4df1:	48 8b 45 d8          	mov    -0x28(%rbp),%rax
    4df5:	48 01 c0             	add    %rax,%rax
    4df8:	48 39 c2             	cmp    %rax,%rdx
    4dfb:	73 3f                	jae    4e3c <_ZNSt7__cxx1112basic_stringIcSt11char_traitsIcESaIcEE9_M_createERmm+0xa0>
    4dfd:	48 8b 45 d8          	mov    -0x28(%rbp),%rax
    4e01:	48 8d 14 00          	lea    (%rax,%rax,1),%rdx
    4e05:	48 8b 45 e0          	mov    -0x20(%rbp),%rax
    4e09:	48 89 10             	mov    %rdx,(%rax)
    4e0c:	48 8b 45 e0          	mov    -0x20(%rbp),%rax
    4e10:	48 8b 18             	mov    (%rax),%rbx
    4e13:	48 8b 45 e8          	mov    -0x18(%rbp),%rax
    4e17:	48 89 c7             	mov    %rax,%rdi
    4e1a:	e8 d9 00 00 00       	call   4ef8 <_ZNKSt7__cxx1112basic_stringIcSt11char_traitsIcESaIcEE8max_sizeEv>
    4e1f:	48 39 d8             	cmp    %rbx,%rax
    4e22:	0f 92 c0             	setb   %al
    4e25:	84 c0                	test   %al,%al
    4e27:	74 13                	je     4e3c <_ZNSt7__cxx1112basic_stringIcSt11char_traitsIcESaIcEE9_M_createERmm+0xa0>
    4e29:	48 8b 45 e8          	mov    -0x18(%rbp),%rax
    4e2d:	48 89 c7             	mov    %rax,%rdi
    4e30:	e8 c3 00 00 00       	call   4ef8 <_ZNKSt7__cxx1112basic_stringIcSt11char_traitsIcESaIcEE8max_sizeEv>
    4e35:	48 8b 55 e0          	mov    -0x20(%rbp),%rdx
    4e39:	48 89 02             	mov    %rax,(%rdx)
    4e3c:	48 8b 45 e0          	mov    -0x20(%rbp),%rax
    4e40:	48 8b 00             	mov    (%rax),%rax
    4e43:	48 8d 58 01          	lea    0x1(%rax),%rbx
    4e47:	48 8b 45 e8          	mov    -0x18(%rbp),%rax
    4e4b:	48 89 c7             	mov    %rax,%rdi
    4e4e:	e8 23 f9 ff ff       	call   4776 <_ZNSt7__cxx1112basic_stringIcSt11char_traitsIcESaIcEE16_M_get_allocatorEv>
    4e53:	48 89 de             	mov    %rbx,%rsi
    4e56:	48 89 c7             	mov    %rax,%rdi
    4e59:	e8 bf 03 00 00       	call   521d <_ZNSt7__cxx1112basic_stringIcSt11char_traitsIcESaIcEE11_S_allocateERS3_m>
    4e5e:	48 8b 5d f8          	mov    -0x8(%rbp),%rbx
    4e62:	c9                   	leave
    4e63:	c3                   	ret

0000000000004e64 <_ZNSt7__cxx1112basic_stringIcSt11char_traitsIcESaIcEE7_S_copyEPcPKcm>:
    4e64:	55                   	push   %rbp
    4e65:	48 89 e5             	mov    %rsp,%rbp
    4e68:	48 83 ec 20          	sub    $0x20,%rsp
    4e6c:	48 89 7d f8          	mov    %rdi,-0x8(%rbp)
    4e70:	48 89 75 f0          	mov    %rsi,-0x10(%rbp)
    4e74:	48 89 55 e8          	mov    %rdx,-0x18(%rbp)
    4e78:	48 83 7d e8 01       	cmpq   $0x1,-0x18(%rbp)
    4e7d:	75 15                	jne    4e94 <_ZNSt7__cxx1112basic_stringIcSt11char_traitsIcESaIcEE7_S_copyEPcPKcm+0x30>
    4e7f:	48 8b 55 f0          	mov    -0x10(%rbp),%rdx
    4e83:	48 8b 45 f8          	mov    -0x8(%rbp),%rax
    4e87:	48 89 d6             	mov    %rdx,%rsi
    4e8a:	48 89 c7             	mov    %rax,%rdi
    4e8d:	e8 ff ef ff ff       	call   3e91 <_ZNSt11char_traitsIcE6assignERcRKc>
    4e92:	eb 17                	jmp    4eab <_ZNSt7__cxx1112basic_stringIcSt11char_traitsIcESaIcEE7_S_copyEPcPKcm+0x47>
    4e94:	48 8b 55 e8          	mov    -0x18(%rbp),%rdx
    4e98:	48 8b 4d f0          	mov    -0x10(%rbp),%rcx
    4e9c:	48 8b 45 f8          	mov    -0x8(%rbp),%rax
    4ea0:	48 89 ce             	mov    %rcx,%rsi
    4ea3:	48 89 c7             	mov    %rax,%rdi
    4ea6:	e8 17 f1 ff ff       	call   3fc2 <_ZNSt11char_traitsIcE4copyEPcPKcm>
    4eab:	90                   	nop
    4eac:	c9                   	leave
    4ead:	c3                   	ret

0000000000004eae <_ZNKSt7__cxx1112basic_stringIcSt11char_traitsIcESaIcEE13_M_local_dataEv>:
    4eae:	55                   	push   %rbp
    4eaf:	48 89 e5             	mov    %rsp,%rbp
    4eb2:	48 83 ec 10          	sub    $0x10,%rsp
    4eb6:	48 89 7d f8          	mov    %rdi,-0x8(%rbp)
    4eba:	48 8b 45 f8          	mov    -0x8(%rbp),%rax
    4ebe:	48 83 c0 10          	add    $0x10,%rax
    4ec2:	48 89 c7             	mov    %rax,%rdi
    4ec5:	e8 96 03 00 00       	call   5260 <_ZNSt19__ptr_traits_ptr_toIPKcS0_Lb0EE10pointer_toERS0_>
    4eca:	c9                   	leave
    4ecb:	c3                   	ret

0000000000004ecc <_ZSt3minImERKT_S2_S2_>:
    4ecc:	55                   	push   %rbp
    4ecd:	48 89 e5             	mov    %rsp,%rbp
    4ed0:	48 89 7d f8          	mov    %rdi,-0x8(%rbp)
    4ed4:	48 89 75 f0          	mov    %rsi,-0x10(%rbp)
    4ed8:	48 8b 45 f0          	mov    -0x10(%rbp),%rax
    4edc:	48 8b 10             	mov    (%rax),%rdx
    4edf:	48 8b 45 f8          	mov    -0x8(%rbp),%rax
    4ee3:	48 8b 00             	mov    (%rax),%rax
    4ee6:	48 39 c2             	cmp    %rax,%rdx
    4ee9:	73 06                	jae    4ef1 <_ZSt3minImERKT_S2_S2_+0x25>
    4eeb:	48 8b 45 f0          	mov    -0x10(%rbp),%rax
    4eef:	eb 04                	jmp    4ef5 <_ZSt3minImERKT_S2_S2_+0x29>
    4ef1:	48 8b 45 f8          	mov    -0x8(%rbp),%rax
    4ef5:	5d                   	pop    %rbp
    4ef6:	c3                   	ret
    4ef7:	90                   	nop

0000000000004ef8 <_ZNKSt7__cxx1112basic_stringIcSt11char_traitsIcESaIcEE8max_sizeEv>:
    4ef8:	55                   	push   %rbp
    4ef9:	48 89 e5             	mov    %rsp,%rbp
    4efc:	48 83 ec 40          	sub    $0x40,%rsp
    4f00:	48 89 7d c8          	mov    %rdi,-0x38(%rbp)
    4f04:	64 48 8b 04 25 28 00 	mov    %fs:0x28,%rax
    4f0b:	00 00 
    4f0d:	48 89 45 f8          	mov    %rax,-0x8(%rbp)
    4f11:	31 c0                	xor    %eax,%eax
    4f13:	48 b8 ff ff ff ff ff 	movabs $0x7fffffffffffffff,%rax
    4f1a:	ff ff 7f 
    4f1d:	48 89 45 d0          	mov    %rax,-0x30(%rbp)
    4f21:	48 8b 45 c8          	mov    -0x38(%rbp),%rax
    4f25:	48 89 c7             	mov    %rax,%rdi
    4f28:	e8 91 00 00 00       	call   4fbe <_ZNKSt7__cxx1112basic_stringIcSt11char_traitsIcESaIcEE16_M_get_allocatorEv>
    4f2d:	48 89 45 e0          	mov    %rax,-0x20(%rbp)
    4f31:	48 8b 45 e0          	mov    -0x20(%rbp),%rax
    4f35:	48 89 45 e8          	mov    %rax,-0x18(%rbp)
    4f39:	48 8b 45 e8          	mov    -0x18(%rbp),%rax
    4f3d:	48 89 45 f0          	mov    %rax,-0x10(%rbp)
    4f41:	48 b8 ff ff ff ff ff 	movabs $0x7fffffffffffffff,%rax
    4f48:	ff ff 7f 
    4f4b:	90                   	nop
    4f4c:	90                   	nop
    4f4d:	48 89 45 d8          	mov    %rax,-0x28(%rbp)
    4f51:	48 8d 55 d8          	lea    -0x28(%rbp),%rdx
    4f55:	48 8d 45 d0          	lea    -0x30(%rbp),%rax
    4f59:	48 89 d6             	mov    %rdx,%rsi
    4f5c:	48 89 c7             	mov    %rax,%rdi
    4f5f:	e8 68 ff ff ff       	call   4ecc <_ZSt3minImERKT_S2_S2_>
    4f64:	48 8b 00             	mov    (%rax),%rax
    4f67:	48 83 e8 01          	sub    $0x1,%rax
    4f6b:	48 8b 55 f8          	mov    -0x8(%rbp),%rdx
    4f6f:	64 48 2b 14 25 28 00 	sub    %fs:0x28,%rdx
    4f76:	00 00 
    4f78:	74 05                	je     4f7f <_ZNKSt7__cxx1112basic_stringIcSt11char_traitsIcESaIcEE8max_sizeEv+0x87>
    4f7a:	e8 e1 e1 ff ff       	call   3160 <__stack_chk_fail@plt>
    4f7f:	c9                   	leave
    4f80:	c3                   	ret

0000000000004f81 <_ZNSt7__cxx1112basic_stringIcSt11char_traitsIcESaIcEE13_S_copy_charsIPKcEEvPcT_S9_>:
    4f81:	55                   	push   %rbp
    4f82:	48 89 e5             	mov    %rsp,%rbp
    4f85:	48 83 ec 30          	sub    $0x30,%rsp
    4f89:	48 89 7d e8          	mov    %rdi,-0x18(%rbp)
    4f8d:	48 89 75 e0          	mov    %rsi,-0x20(%rbp)
    4f91:	48 89 55 d8          	mov    %rdx,-0x28(%rbp)
    4f95:	48 8b 45 d8          	mov    -0x28(%rbp),%rax
    4f99:	48 2b 45 e0          	sub    -0x20(%rbp),%rax
    4f9d:	48 89 c2             	mov    %rax,%rdx
    4fa0:	48 8b 45 e0          	mov    -0x20(%rbp),%rax
    4fa4:	48 89 45 f8          	mov    %rax,-0x8(%rbp)
    4fa8:	48 8b 4d f8          	mov    -0x8(%rbp),%rcx
    4fac:	48 8b 45 e8          	mov    -0x18(%rbp),%rax
    4fb0:	48 89 ce             	mov    %rcx,%rsi
    4fb3:	48 89 c7             	mov    %rax,%rdi
    4fb6:	e8 a9 fe ff ff       	call   4e64 <_ZNSt7__cxx1112basic_stringIcSt11char_traitsIcESaIcEE7_S_copyEPcPKcm>
    4fbb:	90                   	nop
    4fbc:	c9                   	leave
    4fbd:	c3                   	ret

0000000000004fbe <_ZNKSt7__cxx1112basic_stringIcSt11char_traitsIcESaIcEE16_M_get_allocatorEv>:
    4fbe:	55                   	push   %rbp
    4fbf:	48 89 e5             	mov    %rsp,%rbp
    4fc2:	48 89 7d f8          	mov    %rdi,-0x8(%rbp)
    4fc6:	48 8b 45 f8          	mov    -0x8(%rbp),%rax
    4fca:	5d                   	pop    %rbp
    4fcb:	c3                   	ret

0000000000004fcc <_ZNSt7__cxx1112basic_stringIcSt11char_traitsIcESaIcEEC1ERKS3_>:
    4fcc:	55                   	push   %rbp
    4fcd:	48 89 e5             	mov    %rsp,%rbp
    4fd0:	53                   	push   %rbx
    4fd1:	48 83 ec 28          	sub    $0x28,%rsp
    4fd5:	48 89 7d d8          	mov    %rdi,-0x28(%rbp)
    4fd9:	48 89 75 d0          	mov    %rsi,-0x30(%rbp)
    4fdd:	48 8b 5d d8          	mov    -0x28(%rbp),%rbx
    4fe1:	48 8b 45 d8          	mov    -0x28(%rbp),%rax
    4fe5:	48 89 c7             	mov    %rax,%rdi
    4fe8:	e8 c3 f5 ff ff       	call   45b0 <_ZNSt7__cxx1112basic_stringIcSt11char_traitsIcESaIcEE13_M_local_dataEv>
    4fed:	48 89 c1             	mov    %rax,%rcx
    4ff0:	48 8b 45 d0          	mov    -0x30(%rbp),%rax
    4ff4:	48 89 c2             	mov    %rax,%rdx
    4ff7:	48 89 ce             	mov    %rcx,%rsi
    4ffa:	48 89 df             	mov    %rbx,%rdi
    4ffd:	e8 98 f8 ff ff       	call   489a <_ZNSt7__cxx1112basic_stringIcSt11char_traitsIcESaIcEE12_Alloc_hiderC1EPcRKS3_>
    5002:	48 8b 45 d8          	mov    -0x28(%rbp),%rax
    5006:	48 89 45 e8          	mov    %rax,-0x18(%rbp)
    500a:	90                   	nop
    500b:	48 8b 45 d8          	mov    -0x28(%rbp),%rax
    500f:	be 00 00 00 00       	mov    $0x0,%esi
    5014:	48 89 c7             	mov    %rax,%rdi
    5017:	e8 fa f5 ff ff       	call   4616 <_ZNSt7__cxx1112basic_stringIcSt11char_traitsIcESaIcEE13_M_set_lengthEm>
    501c:	90                   	nop
    501d:	48 8b 5d f8          	mov    -0x8(%rbp),%rbx
    5021:	c9                   	leave
    5022:	c3                   	ret
    5023:	90                   	nop

0000000000005024 <_ZNSt7__cxx1112basic_stringIcSt11char_traitsIcESaIcEE6appendEPKcm>:
    5024:	55                   	push   %rbp
    5025:	48 89 e5             	mov    %rsp,%rbp
    5028:	48 83 ec 20          	sub    $0x20,%rsp
    502c:	48 89 7d f8          	mov    %rdi,-0x8(%rbp)
    5030:	48 89 75 f0          	mov    %rsi,-0x10(%rbp)
    5034:	48 89 55 e8          	mov    %rdx,-0x18(%rbp)
    5038:	48 8d 0d 63 42 00 00 	lea    0x4263(%rip),%rcx        # 92a2 <_IO_stdin_used+0x2a2>
    503f:	48 8b 55 e8          	mov    -0x18(%rbp),%rdx
    5043:	48 8b 45 f8          	mov    -0x8(%rbp),%rax
    5047:	be 00 00 00 00       	mov    $0x0,%esi
    504c:	48 89 c7             	mov    %rax,%rdi
    504f:	e8 1a 00 00 00       	call   506e <_ZNKSt7__cxx1112basic_stringIcSt11char_traitsIcESaIcEE15_M_check_lengthEmmPKc>
    5054:	48 8b 55 e8          	mov    -0x18(%rbp),%rdx
    5058:	48 8b 4d f0          	mov    -0x10(%rbp),%rcx
    505c:	48 8b 45 f8          	mov    -0x8(%rbp),%rax
    5060:	48 89 ce             	mov    %rcx,%rsi
    5063:	48 89 c7             	mov    %rax,%rdi
    5066:	e8 61 00 00 00       	call   50cc <_ZNSt7__cxx1112basic_stringIcSt11char_traitsIcESaIcEE9_M_appendEPKcm>
    506b:	c9                   	leave
    506c:	c3                   	ret
    506d:	90                   	nop

000000000000506e <_ZNKSt7__cxx1112basic_stringIcSt11char_traitsIcESaIcEE15_M_check_lengthEmmPKc>:
    506e:	55                   	push   %rbp
    506f:	48 89 e5             	mov    %rsp,%rbp
    5072:	53                   	push   %rbx
    5073:	48 83 ec 28          	sub    $0x28,%rsp
    5077:	48 89 7d e8          	mov    %rdi,-0x18(%rbp)
    507b:	48 89 75 e0          	mov    %rsi,-0x20(%rbp)
    507f:	48 89 55 d8          	mov    %rdx,-0x28(%rbp)
    5083:	48 89 4d d0          	mov    %rcx,-0x30(%rbp)
    5087:	48 8b 45 e8          	mov    -0x18(%rbp),%rax
    508b:	48 89 c7             	mov    %rax,%rdi
    508e:	e8 65 fe ff ff       	call   4ef8 <_ZNKSt7__cxx1112basic_stringIcSt11char_traitsIcESaIcEE8max_sizeEv>
    5093:	48 89 c3             	mov    %rax,%rbx
    5096:	48 8b 45 e8          	mov    -0x18(%rbp),%rax
    509a:	48 89 c7             	mov    %rax,%rdi
    509d:	e8 b8 f7 ff ff       	call   485a <_ZNKSt7__cxx1112basic_stringIcSt11char_traitsIcESaIcEE4sizeEv>
    50a2:	48 8b 55 e0          	mov    -0x20(%rbp),%rdx
    50a6:	48 29 c2             	sub    %rax,%rdx
    50a9:	48 8d 04 13          	lea    (%rbx,%rdx,1),%rax
    50ad:	48 3b 45 d8          	cmp    -0x28(%rbp),%rax
    50b1:	0f 92 c0             	setb   %al
    50b4:	84 c0                	test   %al,%al
    50b6:	74 0c                	je     50c4 <_ZNKSt7__cxx1112basic_stringIcSt11char_traitsIcESaIcEE15_M_check_lengthEmmPKc+0x56>
    50b8:	48 8b 45 d0          	mov    -0x30(%rbp),%rax
    50bc:	48 89 c7             	mov    %rax,%rdi
    50bf:	e8 ac e1 ff ff       	call   3270 <_ZSt20__throw_length_errorPKc@plt>
    50c4:	90                   	nop
    50c5:	48 8b 5d f8          	mov    -0x8(%rbp),%rbx
    50c9:	c9                   	leave
    50ca:	c3                   	ret
    50cb:	90                   	nop

00000000000050cc <_ZNSt7__cxx1112basic_stringIcSt11char_traitsIcESaIcEE9_M_appendEPKcm>:
    50cc:	55                   	push   %rbp
    50cd:	48 89 e5             	mov    %rsp,%rbp
    50d0:	53                   	push   %rbx
    50d1:	48 83 ec 38          	sub    $0x38,%rsp
    50d5:	48 89 7d d8          	mov    %rdi,-0x28(%rbp)
    50d9:	48 89 75 d0          	mov    %rsi,-0x30(%rbp)
    50dd:	48 89 55 c8          	mov    %rdx,-0x38(%rbp)
    50e1:	48 8b 45 d8          	mov    -0x28(%rbp),%rax
    50e5:	48 89 c7             	mov    %rax,%rdi
    50e8:	e8 6d f7 ff ff       	call   485a <_ZNKSt7__cxx1112basic_stringIcSt11char_traitsIcESaIcEE4sizeEv>
    50ed:	48 8b 55 c8          	mov    -0x38(%rbp),%rdx
    50f1:	48 01 d0             	add    %rdx,%rax
    50f4:	48 89 45 e8          	mov    %rax,-0x18(%rbp)
    50f8:	48 8b 45 d8          	mov    -0x28(%rbp),%rax
    50fc:	48 89 c7             	mov    %rax,%rdi
    50ff:	e8 38 fc ff ff       	call   4d3c <_ZNKSt7__cxx1112basic_stringIcSt11char_traitsIcESaIcEE8capacityEv>
    5104:	48 3b 45 e8          	cmp    -0x18(%rbp),%rax
    5108:	0f 93 c0             	setae  %al
    510b:	84 c0                	test   %al,%al
    510d:	74 3b                	je     514a <_ZNSt7__cxx1112basic_stringIcSt11char_traitsIcESaIcEE9_M_appendEPKcm+0x7e>
    510f:	48 83 7d c8 00       	cmpq   $0x0,-0x38(%rbp)
    5114:	74 62                	je     5178 <_ZNSt7__cxx1112basic_stringIcSt11char_traitsIcESaIcEE9_M_appendEPKcm+0xac>
    5116:	48 8b 45 d8          	mov    -0x28(%rbp),%rax
    511a:	48 89 c7             	mov    %rax,%rdi
    511d:	e8 7c f4 ff ff       	call   459e <_ZNKSt7__cxx1112basic_stringIcSt11char_traitsIcESaIcEE7_M_dataEv>
    5122:	48 89 c3             	mov    %rax,%rbx
    5125:	48 8b 45 d8          	mov    -0x28(%rbp),%rax
    5129:	48 89 c7             	mov    %rax,%rdi
    512c:	e8 29 f7 ff ff       	call   485a <_ZNKSt7__cxx1112basic_stringIcSt11char_traitsIcESaIcEE4sizeEv>
    5131:	48 8d 0c 03          	lea    (%rbx,%rax,1),%rcx
    5135:	48 8b 55 c8          	mov    -0x38(%rbp),%rdx
    5139:	48 8b 45 d0          	mov    -0x30(%rbp),%rax
    513d:	48 89 c6             	mov    %rax,%rsi
    5140:	48 89 cf             	mov    %rcx,%rdi
    5143:	e8 1c fd ff ff       	call   4e64 <_ZNSt7__cxx1112basic_stringIcSt11char_traitsIcESaIcEE7_S_copyEPcPKcm>
    5148:	eb 2e                	jmp    5178 <_ZNSt7__cxx1112basic_stringIcSt11char_traitsIcESaIcEE9_M_appendEPKcm+0xac>
    514a:	48 8b 45 d8          	mov    -0x28(%rbp),%rax
    514e:	48 89 c7             	mov    %rax,%rdi
    5151:	e8 04 f7 ff ff       	call   485a <_ZNKSt7__cxx1112basic_stringIcSt11char_traitsIcESaIcEE4sizeEv>
    5156:	48 89 c6             	mov    %rax,%rsi
    5159:	48 8b 4d c8          	mov    -0x38(%rbp),%rcx
    515d:	48 8b 55 d0          	mov    -0x30(%rbp),%rdx
    5161:	48 8b 45 d8          	mov    -0x28(%rbp),%rax
    5165:	49 89 c8             	mov    %rcx,%r8
    5168:	48 89 d1             	mov    %rdx,%rcx
    516b:	ba 00 00 00 00       	mov    $0x0,%edx
    5170:	48 89 c7             	mov    %rax,%rdi
    5173:	e8 08 01 00 00       	call   5280 <_ZNSt7__cxx1112basic_stringIcSt11char_traitsIcESaIcEE9_M_mutateEmmPKcm>
    5178:	48 8b 55 e8          	mov    -0x18(%rbp),%rdx
    517c:	48 8b 45 d8          	mov    -0x28(%rbp),%rax
    5180:	48 89 d6             	mov    %rdx,%rsi
    5183:	48 89 c7             	mov    %rax,%rdi
    5186:	e8 8b f4 ff ff       	call   4616 <_ZNSt7__cxx1112basic_stringIcSt11char_traitsIcESaIcEE13_M_set_lengthEm>
    518b:	48 8b 45 d8          	mov    -0x28(%rbp),%rax
    518f:	48 8b 5d f8          	mov    -0x8(%rbp),%rbx
    5193:	c9                   	leave
    5194:	c3                   	ret
    5195:	90                   	nop

0000000000005196 <_ZNSt12_Vector_baseISt4pairIiNSt7__cxx1112basic_stringIcSt11char_traitsIcESaIcEEEESaIS7_EE13_M_deallocateEPS7_m>:
    5196:	55                   	push   %rbp
    5197:	48 89 e5             	mov    %rsp,%rbp
    519a:	48 83 ec 40          	sub    $0x40,%rsp
    519e:	48 89 7d d8          	mov    %rdi,-0x28(%rbp)
    51a2:	48 89 75 d0          	mov    %rsi,-0x30(%rbp)
    51a6:	48 89 55 c8          	mov    %rdx,-0x38(%rbp)
    51aa:	48 83 7d d0 00       	cmpq   $0x0,-0x30(%rbp)
    51af:	74 30                	je     51e1 <_ZNSt12_Vector_baseISt4pairIiNSt7__cxx1112basic_stringIcSt11char_traitsIcESaIcEEEESaIS7_EE13_M_deallocateEPS7_m+0x4b>
    51b1:	48 8b 45 d8          	mov    -0x28(%rbp),%rax
    51b5:	48 89 45 e8          	mov    %rax,-0x18(%rbp)
    51b9:	48 8b 45 d0          	mov    -0x30(%rbp),%rax
    51bd:	48 89 45 f0          	mov    %rax,-0x10(%rbp)
    51c1:	48 8b 45 c8          	mov    -0x38(%rbp),%rax
    51c5:	48 89 45 f8          	mov    %rax,-0x8(%rbp)
    51c9:	48 8b 55 f8          	mov    -0x8(%rbp),%rdx
    51cd:	48 8b 4d f0          	mov    -0x10(%rbp),%rcx
    51d1:	48 8b 45 e8          	mov    -0x18(%rbp),%rax
    51d5:	48 89 ce             	mov    %rcx,%rsi
    51d8:	48 89 c7             	mov    %rax,%rdi
    51db:	e8 78 02 00 00       	call   5458 <_ZNSt15__new_allocatorISt4pairIiNSt7__cxx1112basic_stringIcSt11char_traitsIcESaIcEEEEE10deallocateEPS7_m>
    51e0:	90                   	nop
    51e1:	90                   	nop
    51e2:	c9                   	leave
    51e3:	c3                   	ret

00000000000051e4 <_ZSt8_DestroyIPSt4pairIiNSt7__cxx1112basic_stringIcSt11char_traitsIcESaIcEEEEEvT_S9_>:
    51e4:	55                   	push   %rbp
    51e5:	48 89 e5             	mov    %rsp,%rbp
    51e8:	48 83 ec 20          	sub    $0x20,%rsp
    51ec:	48 89 7d e8          	mov    %rdi,-0x18(%rbp)
    51f0:	48 89 75 e0          	mov    %rsi,-0x20(%rbp)
    51f4:	eb 19                	jmp    520f <_ZSt8_DestroyIPSt4pairIiNSt7__cxx1112basic_stringIcSt11char_traitsIcESaIcEEEEEvT_S9_+0x2b>
    51f6:	48 8b 45 e8          	mov    -0x18(%rbp),%rax
    51fa:	48 89 45 f8          	mov    %rax,-0x8(%rbp)
    51fe:	48 8b 45 f8          	mov    -0x8(%rbp),%rax
    5202:	48 89 c7             	mov    %rax,%rdi
    5205:	e8 09 02 00 00       	call   5413 <_ZSt8_DestroyISt4pairIiNSt7__cxx1112basic_stringIcSt11char_traitsIcESaIcEEEEEvPT_>
    520a:	48 83 45 e8 28       	addq   $0x28,-0x18(%rbp)
    520f:	48 8b 45 e8          	mov    -0x18(%rbp),%rax
    5213:	48 3b 45 e0          	cmp    -0x20(%rbp),%rax
    5217:	75 dd                	jne    51f6 <_ZSt8_DestroyIPSt4pairIiNSt7__cxx1112basic_stringIcSt11char_traitsIcESaIcEEEEEvT_S9_+0x12>
    5219:	90                   	nop
    521a:	90                   	nop
    521b:	c9                   	leave
    521c:	c3                   	ret

000000000000521d <_ZNSt7__cxx1112basic_stringIcSt11char_traitsIcESaIcEE11_S_allocateERS3_m>:
    521d:	55                   	push   %rbp
    521e:	48 89 e5             	mov    %rsp,%rbp
    5221:	48 83 ec 30          	sub    $0x30,%rsp
    5225:	48 89 7d d8          	mov    %rdi,-0x28(%rbp)
    5229:	48 89 75 d0          	mov    %rsi,-0x30(%rbp)
    522d:	48 8b 45 d8          	mov    -0x28(%rbp),%rax
    5231:	48 89 45 f0          	mov    %rax,-0x10(%rbp)
    5235:	48 8b 45 d0          	mov    -0x30(%rbp),%rax
    5239:	48 89 45 f8          	mov    %rax,-0x8(%rbp)
    523d:	48 8b 4d f8          	mov    -0x8(%rbp),%rcx
    5241:	48 8b 45 f0          	mov    -0x10(%rbp),%rax
    5245:	ba 00 00 00 00       	mov    $0x0,%edx
    524a:	48 89 ce             	mov    %rcx,%rsi
    524d:	48 89 c7             	mov    %rax,%rdi
    5250:	e8 3d 02 00 00       	call   5492 <_ZNSt15__new_allocatorIcE8allocateEmPKv>
    5255:	90                   	nop
    5256:	48 89 45 e8          	mov    %rax,-0x18(%rbp)
    525a:	48 8b 45 e8          	mov    -0x18(%rbp),%rax
    525e:	c9                   	leave
    525f:	c3                   	ret

0000000000005260 <_ZNSt19__ptr_traits_ptr_toIPKcS0_Lb0EE10pointer_toERS0_>:
    5260:	55                   	push   %rbp
    5261:	48 89 e5             	mov    %rsp,%rbp
    5264:	48 89 7d e8          	mov    %rdi,-0x18(%rbp)
    5268:	48 8b 45 e8          	mov    -0x18(%rbp),%rax
    526c:	48 89 45 f0          	mov    %rax,-0x10(%rbp)
    5270:	48 8b 45 f0          	mov    -0x10(%rbp),%rax
    5274:	48 89 45 f8          	mov    %rax,-0x8(%rbp)
    5278:	48 8b 45 f8          	mov    -0x8(%rbp),%rax
    527c:	90                   	nop
    527d:	5d                   	pop    %rbp
    527e:	c3                   	ret
    527f:	90                   	nop

0000000000005280 <_ZNSt7__cxx1112basic_stringIcSt11char_traitsIcESaIcEE9_M_mutateEmmPKcm>:
    5280:	55                   	push   %rbp
    5281:	48 89 e5             	mov    %rsp,%rbp
    5284:	48 83 ec 50          	sub    $0x50,%rsp
    5288:	48 89 7d d8          	mov    %rdi,-0x28(%rbp)
    528c:	48 89 75 d0          	mov    %rsi,-0x30(%rbp)
    5290:	48 89 55 c8          	mov    %rdx,-0x38(%rbp)
    5294:	48 89 4d c0          	mov    %rcx,-0x40(%rbp)
    5298:	4c 89 45 b8          	mov    %r8,-0x48(%rbp)
    529c:	64 48 8b 04 25 28 00 	mov    %fs:0x28,%rax
    52a3:	00 00 
    52a5:	48 89 45 f8          	mov    %rax,-0x8(%rbp)
    52a9:	31 c0                	xor    %eax,%eax
    52ab:	48 8b 45 d8          	mov    -0x28(%rbp),%rax
    52af:	48 89 c7             	mov    %rax,%rdi
    52b2:	e8 1d f5 ff ff       	call   47d4 <_ZNKSt7__cxx1112basic_stringIcSt11char_traitsIcESaIcEE6lengthEv>
    52b7:	48 2b 45 d0          	sub    -0x30(%rbp),%rax
    52bb:	48 2b 45 c8          	sub    -0x38(%rbp),%rax
    52bf:	48 89 45 e8          	mov    %rax,-0x18(%rbp)
    52c3:	48 8b 45 d8          	mov    -0x28(%rbp),%rax
    52c7:	48 89 c7             	mov    %rax,%rdi
    52ca:	e8 05 f5 ff ff       	call   47d4 <_ZNKSt7__cxx1112basic_stringIcSt11char_traitsIcESaIcEE6lengthEv>
    52cf:	48 8b 55 b8          	mov    -0x48(%rbp),%rdx
    52d3:	48 01 d0             	add    %rdx,%rax
    52d6:	48 2b 45 c8          	sub    -0x38(%rbp),%rax
    52da:	48 89 45 e0          	mov    %rax,-0x20(%rbp)
    52de:	48 8b 45 d8          	mov    -0x28(%rbp),%rax
    52e2:	48 89 c7             	mov    %rax,%rdi
    52e5:	e8 52 fa ff ff       	call   4d3c <_ZNKSt7__cxx1112basic_stringIcSt11char_traitsIcESaIcEE8capacityEv>
    52ea:	48 89 c2             	mov    %rax,%rdx
    52ed:	48 8d 4d e0          	lea    -0x20(%rbp),%rcx
    52f1:	48 8b 45 d8          	mov    -0x28(%rbp),%rax
    52f5:	48 89 ce             	mov    %rcx,%rsi
    52f8:	48 89 c7             	mov    %rax,%rdi
    52fb:	e8 9c fa ff ff       	call   4d9c <_ZNSt7__cxx1112basic_stringIcSt11char_traitsIcESaIcEE9_M_createERmm>
    5300:	48 89 45 f0          	mov    %rax,-0x10(%rbp)
    5304:	48 83 7d d0 00       	cmpq   $0x0,-0x30(%rbp)
    5309:	74 22                	je     532d <_ZNSt7__cxx1112basic_stringIcSt11char_traitsIcESaIcEE9_M_mutateEmmPKcm+0xad>
    530b:	48 8b 45 d8          	mov    -0x28(%rbp),%rax
    530f:	48 89 c7             	mov    %rax,%rdi
    5312:	e8 87 f2 ff ff       	call   459e <_ZNKSt7__cxx1112basic_stringIcSt11char_traitsIcESaIcEE7_M_dataEv>
    5317:	48 89 c1             	mov    %rax,%rcx
    531a:	48 8b 55 d0          	mov    -0x30(%rbp),%rdx
    531e:	48 8b 45 f0          	mov    -0x10(%rbp),%rax
    5322:	48 89 ce             	mov    %rcx,%rsi
    5325:	48 89 c7             	mov    %rax,%rdi
    5328:	e8 37 fb ff ff       	call   4e64 <_ZNSt7__cxx1112basic_stringIcSt11char_traitsIcESaIcEE7_S_copyEPcPKcm>
    532d:	48 83 7d c0 00       	cmpq   $0x0,-0x40(%rbp)
    5332:	74 26                	je     535a <_ZNSt7__cxx1112basic_stringIcSt11char_traitsIcESaIcEE9_M_mutateEmmPKcm+0xda>
    5334:	48 83 7d b8 00       	cmpq   $0x0,-0x48(%rbp)
    5339:	74 1f                	je     535a <_ZNSt7__cxx1112basic_stringIcSt11char_traitsIcESaIcEE9_M_mutateEmmPKcm+0xda>
    533b:	48 8b 55 f0          	mov    -0x10(%rbp),%rdx
    533f:	48 8b 45 d0          	mov    -0x30(%rbp),%rax
    5343:	48 8d 0c 02          	lea    (%rdx,%rax,1),%rcx
    5347:	48 8b 55 b8          	mov    -0x48(%rbp),%rdx
    534b:	48 8b 45 c0          	mov    -0x40(%rbp),%rax
    534f:	48 89 c6             	mov    %rax,%rsi
    5352:	48 89 cf             	mov    %rcx,%rdi
    5355:	e8 0a fb ff ff       	call   4e64 <_ZNSt7__cxx1112basic_stringIcSt11char_traitsIcESaIcEE7_S_copyEPcPKcm>
    535a:	48 83 7d e8 00       	cmpq   $0x0,-0x18(%rbp)
    535f:	74 3d                	je     539e <_ZNSt7__cxx1112basic_stringIcSt11char_traitsIcESaIcEE9_M_mutateEmmPKcm+0x11e>
    5361:	48 8b 45 d8          	mov    -0x28(%rbp),%rax
    5365:	48 89 c7             	mov    %rax,%rdi
    5368:	e8 31 f2 ff ff       	call   459e <_ZNKSt7__cxx1112basic_stringIcSt11char_traitsIcESaIcEE7_M_dataEv>
    536d:	48 8b 4d d0          	mov    -0x30(%rbp),%rcx
    5371:	48 8b 55 c8          	mov    -0x38(%rbp),%rdx
    5375:	48 01 ca             	add    %rcx,%rdx
    5378:	48 8d 34 10          	lea    (%rax,%rdx,1),%rsi
    537c:	48 8b 55 d0          	mov    -0x30(%rbp),%rdx
    5380:	48 8b 45 b8          	mov    -0x48(%rbp),%rax
    5384:	48 01 c2             	add    %rax,%rdx
    5387:	48 8b 45 f0          	mov    -0x10(%rbp),%rax
    538b:	48 8d 0c 02          	lea    (%rdx,%rax,1),%rcx
    538f:	48 8b 45 e8          	mov    -0x18(%rbp),%rax
    5393:	48 89 c2             	mov    %rax,%rdx
    5396:	48 89 cf             	mov    %rcx,%rdi
    5399:	e8 c6 fa ff ff       	call   4e64 <_ZNSt7__cxx1112basic_stringIcSt11char_traitsIcESaIcEE7_S_copyEPcPKcm>
    539e:	48 8b 45 d8          	mov    -0x28(%rbp),%rax
    53a2:	48 89 c7             	mov    %rax,%rdi
    53a5:	e8 dc f2 ff ff       	call   4686 <_ZNSt7__cxx1112basic_stringIcSt11char_traitsIcESaIcEE10_M_disposeEv>
    53aa:	48 8b 55 f0          	mov    -0x10(%rbp),%rdx
    53ae:	48 8b 45 d8          	mov    -0x28(%rbp),%rax
    53b2:	48 89 d6             	mov    %rdx,%rsi
    53b5:	48 89 c7             	mov    %rax,%rdi
    53b8:	e8 31 f4 ff ff       	call   47ee <_ZNSt7__cxx1112basic_stringIcSt11char_traitsIcESaIcEE7_M_dataEPc>
    53bd:	48 8b 55 e0          	mov    -0x20(%rbp),%rdx
    53c1:	48 8b 45 d8          	mov    -0x28(%rbp),%rax
    53c5:	48 89 d6             	mov    %rdx,%rsi
    53c8:	48 89 c7             	mov    %rax,%rdi
    53cb:	e8 38 f4 ff ff       	call   4808 <_ZNSt7__cxx1112basic_stringIcSt11char_traitsIcESaIcEE11_M_capacityEm>
    53d0:	90                   	nop
    53d1:	48 8b 45 f8          	mov    -0x8(%rbp),%rax
    53d5:	64 48 2b 04 25 28 00 	sub    %fs:0x28,%rax
    53dc:	00 00 
    53de:	74 05                	je     53e5 <_ZNSt7__cxx1112basic_stringIcSt11char_traitsIcESaIcEE9_M_mutateEmmPKcm+0x165>
    53e0:	e8 7b dd ff ff       	call   3160 <__stack_chk_fail@plt>
    53e5:	c9                   	leave
    53e6:	c3                   	ret
    53e7:	90                   	nop

00000000000053e8 <_ZNSt15__new_allocatorISt4pairIiNSt7__cxx1112basic_stringIcSt11char_traitsIcESaIcEEEEED1Ev>:
    53e8:	55                   	push   %rbp
    53e9:	48 89 e5             	mov    %rsp,%rbp
    53ec:	48 89 7d f8          	mov    %rdi,-0x8(%rbp)
    53f0:	90                   	nop
    53f1:	5d                   	pop    %rbp
    53f2:	c3                   	ret
    53f3:	90                   	nop

00000000000053f4 <_ZNSt4pairIiNSt7__cxx1112basic_stringIcSt11char_traitsIcESaIcEEEED1Ev>:
    53f4:	55                   	push   %rbp
    53f5:	48 89 e5             	mov    %rsp,%rbp
    53f8:	48 83 ec 10          	sub    $0x10,%rsp
    53fc:	48 89 7d f8          	mov    %rdi,-0x8(%rbp)
    5400:	48 8b 45 f8          	mov    -0x8(%rbp),%rax
    5404:	48 83 c0 08          	add    $0x8,%rax
    5408:	48 89 c7             	mov    %rax,%rdi
    540b:	e8 9c ec ff ff       	call   40ac <_ZNSt7__cxx1112basic_stringIcSt11char_traitsIcESaIcEED1Ev>
    5410:	90                   	nop
    5411:	c9                   	leave
    5412:	c3                   	ret

0000000000005413 <_ZSt8_DestroyISt4pairIiNSt7__cxx1112basic_stringIcSt11char_traitsIcESaIcEEEEEvPT_>:
    5413:	55                   	push   %rbp
    5414:	48 89 e5             	mov    %rsp,%rbp
    5417:	48 83 ec 10          	sub    $0x10,%rsp
    541b:	48 89 7d f8          	mov    %rdi,-0x8(%rbp)
    541f:	48 8b 45 f8          	mov    -0x8(%rbp),%rax
    5423:	48 89 c7             	mov    %rax,%rdi
    5426:	e8 c9 ff ff ff       	call   53f4 <_ZNSt4pairIiNSt7__cxx1112basic_stringIcSt11char_traitsIcESaIcEEEED1Ev>
    542b:	90                   	nop
    542c:	c9                   	leave
    542d:	c3                   	ret

000000000000542e <_ZNSt15__new_allocatorIcE10deallocateEPcm>:
    542e:	55                   	push   %rbp
    542f:	48 89 e5             	mov    %rsp,%rbp
    5432:	48 83 ec 20          	sub    $0x20,%rsp
    5436:	48 89 7d f8          	mov    %rdi,-0x8(%rbp)
    543a:	48 89 75 f0          	mov    %rsi,-0x10(%rbp)
    543e:	48 89 55 e8          	mov    %rdx,-0x18(%rbp)
    5442:	48 8b 55 e8          	mov    -0x18(%rbp),%rdx
    5446:	48 8b 45 f0          	mov    -0x10(%rbp),%rax
    544a:	48 89 d6             	mov    %rdx,%rsi
    544d:	48 89 c7             	mov    %rax,%rdi
    5450:	e8 4b dc ff ff       	call   30a0 <_ZdlPvm@plt>
    5455:	c9                   	leave
    5456:	c3                   	ret
    5457:	90                   	nop

0000000000005458 <_ZNSt15__new_allocatorISt4pairIiNSt7__cxx1112basic_stringIcSt11char_traitsIcESaIcEEEEE10deallocateEPS7_m>:
    5458:	55                   	push   %rbp
    5459:	48 89 e5             	mov    %rsp,%rbp
    545c:	48 83 ec 20          	sub    $0x20,%rsp
    5460:	48 89 7d f8          	mov    %rdi,-0x8(%rbp)
    5464:	48 89 75 f0          	mov    %rsi,-0x10(%rbp)
    5468:	48 89 55 e8          	mov    %rdx,-0x18(%rbp)
    546c:	48 8b 55 e8          	mov    -0x18(%rbp),%rdx
    5470:	48 89 d0             	mov    %rdx,%rax
    5473:	48 c1 e0 02          	shl    $0x2,%rax
    5477:	48 01 d0             	add    %rdx,%rax
    547a:	48 c1 e0 03          	shl    $0x3,%rax
    547e:	48 89 c2             	mov    %rax,%rdx
    5481:	48 8b 45 f0          	mov    -0x10(%rbp),%rax
    5485:	48 89 d6             	mov    %rdx,%rsi
    5488:	48 89 c7             	mov    %rax,%rdi
    548b:	e8 10 dc ff ff       	call   30a0 <_ZdlPvm@plt>
    5490:	c9                   	leave
    5491:	c3                   	ret

0000000000005492 <_ZNSt15__new_allocatorIcE8allocateEmPKv>:
    5492:	55                   	push   %rbp
    5493:	48 89 e5             	mov    %rsp,%rbp
    5496:	48 83 ec 30          	sub    $0x30,%rsp
    549a:	48 89 7d e8          	mov    %rdi,-0x18(%rbp)
    549e:	48 89 75 e0          	mov    %rsi,-0x20(%rbp)
    54a2:	48 89 55 d8          	mov    %rdx,-0x28(%rbp)
    54a6:	48 8b 45 e8          	mov    -0x18(%rbp),%rax
    54aa:	48 89 45 f8          	mov    %rax,-0x8(%rbp)
    54ae:	48 b8 ff ff ff ff ff 	movabs $0x7fffffffffffffff,%rax
    54b5:	ff ff 7f 
    54b8:	48 3b 45 e0          	cmp    -0x20(%rbp),%rax
    54bc:	0f 92 c0             	setb   %al
    54bf:	0f b6 c0             	movzbl %al,%eax
    54c2:	48 85 c0             	test   %rax,%rax
    54c5:	0f 95 c0             	setne  %al
    54c8:	84 c0                	test   %al,%al
    54ca:	74 05                	je     54d1 <_ZNSt15__new_allocatorIcE8allocateEmPKv+0x3f>
    54cc:	e8 bf db ff ff       	call   3090 <_ZSt17__throw_bad_allocv@plt>
    54d1:	48 8b 45 e0          	mov    -0x20(%rbp),%rax
    54d5:	48 89 c7             	mov    %rax,%rdi
    54d8:	e8 13 dc ff ff       	call   30f0 <_Znwm@plt>
    54dd:	90                   	nop
    54de:	c9                   	leave
    54df:	c3                   	ret

00000000000054e0 <_ZZ8readFileRKNSt7__cxx1112basic_stringIcSt11char_traitsIcESaIcEEEENKUlcE_clEc>:
    54e0:	55                   	push   %rbp
    54e1:	48 89 e5             	mov    %rsp,%rbp
    54e4:	48 89 7d f8          	mov    %rdi,-0x8(%rbp)
    54e8:	89 f0                	mov    %esi,%eax
    54ea:	88 45 f4             	mov    %al,-0xc(%rbp)
    54ed:	0f b6 45 f4          	movzbl -0xc(%rbp),%eax
    54f1:	5d                   	pop    %rbp
    54f2:	c3                   	ret

00000000000054f3 <_Z8readFileRKNSt7__cxx1112basic_stringIcSt11char_traitsIcESaIcEEE>:
    54f3:	55                   	push   %rbp
    54f4:	48 89 e5             	mov    %rsp,%rbp
    54f7:	53                   	push   %rbx
    54f8:	48 81 ec 78 02 00 00 	sub    $0x278,%rsp
    54ff:	48 89 bd 88 fd ff ff 	mov    %rdi,-0x278(%rbp)
    5506:	48 89 b5 80 fd ff ff 	mov    %rsi,-0x280(%rbp)
    550d:	64 48 8b 04 25 28 00 	mov    %fs:0x28,%rax
    5514:	00 00 
    5516:	48 89 45 e8          	mov    %rax,-0x18(%rbp)
    551a:	31 c0                	xor    %eax,%eax
    551c:	48 8b 8d 80 fd ff ff 	mov    -0x280(%rbp),%rcx
    5523:	48 8d 85 e0 fd ff ff 	lea    -0x220(%rbp),%rax
    552a:	ba 04 00 00 00       	mov    $0x4,%edx
    552f:	48 89 ce             	mov    %rcx,%rsi
    5532:	48 89 c7             	mov    %rax,%rdi
    5535:	e8 46 de ff ff       	call   3380 <_ZNSt14basic_ifstreamIcSt11char_traitsIcEEC1ERKNSt7__cxx1112basic_stringIcS1_SaIcEEESt13_Ios_Openmode@plt>
    553a:	48 8d 85 e0 fd ff ff 	lea    -0x220(%rbp),%rax
    5541:	48 05 00 01 00 00    	add    $0x100,%rax
    5547:	48 89 c7             	mov    %rax,%rdi
    554a:	e8 e1 da ff ff       	call   3030 <_ZNKSt9basic_iosIcSt11char_traitsIcEEntEv@plt>
    554f:	84 c0                	test   %al,%al
    5551:	74 27                	je     557a <_Z8readFileRKNSt7__cxx1112basic_stringIcSt11char_traitsIcESaIcEEE+0x87>
    5553:	48 8b 85 88 fd ff ff 	mov    -0x278(%rbp),%rax
    555a:	66 0f ef c0          	pxor   %xmm0,%xmm0
    555e:	0f 11 00             	movups %xmm0,(%rax)
    5561:	66 0f d6 40 10       	movq   %xmm0,0x10(%rax)
    5566:	48 8b 85 88 fd ff ff 	mov    -0x278(%rbp),%rax
    556d:	48 89 c7             	mov    %rax,%rdi
    5570:	e8 15 03 00 00       	call   588a <_ZNSt6vectorIhSaIhEEC1Ev>
    5575:	e9 38 01 00 00       	jmp    56b2 <_Z8readFileRKNSt7__cxx1112basic_stringIcSt11char_traitsIcESaIcEEE+0x1bf>
    557a:	48 8d 85 e0 fd ff ff 	lea    -0x220(%rbp),%rax
    5581:	ba 02 00 00 00       	mov    $0x2,%edx
    5586:	be 00 00 00 00       	mov    $0x0,%esi
    558b:	48 89 c7             	mov    %rax,%rdi
    558e:	e8 1d dc ff ff       	call   31b0 <_ZNSi5seekgElSt12_Ios_Seekdir@plt>
    5593:	48 8d 85 e0 fd ff ff 	lea    -0x220(%rbp),%rax
    559a:	48 89 c7             	mov    %rax,%rdi
    559d:	e8 3e db ff ff       	call   30e0 <_ZNSi5tellgEv@plt>
    55a2:	48 89 85 d0 fd ff ff 	mov    %rax,-0x230(%rbp)
    55a9:	48 89 95 d8 fd ff ff 	mov    %rdx,-0x228(%rbp)
    55b0:	48 8d 85 e0 fd ff ff 	lea    -0x220(%rbp),%rax
    55b7:	ba 00 00 00 00       	mov    $0x0,%edx
    55bc:	be 00 00 00 00       	mov    $0x0,%esi
    55c1:	48 89 c7             	mov    %rax,%rdi
    55c4:	e8 e7 db ff ff       	call   31b0 <_ZNSi5seekgElSt12_Ios_Seekdir@plt>
    55c9:	48 8d 85 b0 fd ff ff 	lea    -0x250(%rbp),%rax
    55d0:	48 89 c7             	mov    %rax,%rdi
    55d3:	e8 b2 02 00 00       	call   588a <_ZNSt6vectorIhSaIhEEC1Ev>
    55d8:	48 8d 85 d0 fd ff ff 	lea    -0x230(%rbp),%rax
    55df:	48 89 c7             	mov    %rax,%rdi
    55e2:	e8 d3 03 00 00       	call   59ba <_ZNKSt4fposI11__mbstate_tEcvlEv>
    55e7:	48 85 c0             	test   %rax,%rax
    55ea:	0f 9f c0             	setg   %al
    55ed:	84 c0                	test   %al,%al
    55ef:	74 24                	je     5615 <_Z8readFileRKNSt7__cxx1112basic_stringIcSt11char_traitsIcESaIcEEE+0x122>
    55f1:	48 8d 85 d0 fd ff ff 	lea    -0x230(%rbp),%rax
    55f8:	48 89 c7             	mov    %rax,%rdi
    55fb:	e8 ba 03 00 00       	call   59ba <_ZNKSt4fposI11__mbstate_tEcvlEv>
    5600:	48 89 c2             	mov    %rax,%rdx
    5603:	48 8d 85 b0 fd ff ff 	lea    -0x250(%rbp),%rax
    560a:	48 89 d6             	mov    %rdx,%rsi
    560d:	48 89 c7             	mov    %rax,%rdi
    5610:	e8 b7 03 00 00       	call   59cc <_ZNSt6vectorIhSaIhEE7reserveEm>
    5615:	48 8d 95 e0 fd ff ff 	lea    -0x220(%rbp),%rdx
    561c:	48 8d 85 90 fd ff ff 	lea    -0x270(%rbp),%rax
    5623:	48 89 d6             	mov    %rdx,%rsi
    5626:	48 89 c7             	mov    %rax,%rdi
    5629:	e8 a6 04 00 00       	call   5ad4 <_ZNSt19istreambuf_iteratorIcSt11char_traitsIcEEC1ERSi>
    562e:	48 c7 85 a0 fd ff ff 	movq   $0x0,-0x260(%rbp)
    5635:	00 00 00 00 
    5639:	48 c7 85 a8 fd ff ff 	movq   $0x0,-0x258(%rbp)
    5640:	00 00 00 00 
    5644:	c7 85 a8 fd ff ff ff 	movl   $0xffffffff,-0x258(%rbp)
    564b:	ff ff ff 
    564e:	48 8d 85 b0 fd ff ff 	lea    -0x250(%rbp),%rax
    5655:	48 89 c7             	mov    %rax,%rdi
    5658:	e8 bd 04 00 00       	call   5b1a <_ZSt13back_inserterISt6vectorIhSaIhEEESt20back_insert_iteratorIT_ERS4_>
    565d:	48 89 c1             	mov    %rax,%rcx
    5660:	48 8b 85 a0 fd ff ff 	mov    -0x260(%rbp),%rax
    5667:	48 8b 95 a8 fd ff ff 	mov    -0x258(%rbp),%rdx
    566e:	48 8b bd 90 fd ff ff 	mov    -0x270(%rbp),%rdi
    5675:	48 8b b5 98 fd ff ff 	mov    -0x268(%rbp),%rsi
    567c:	49 89 c8             	mov    %rcx,%r8
    567f:	48 89 d1             	mov    %rdx,%rcx
    5682:	48 89 c2             	mov    %rax,%rdx
    5685:	e8 9f 00 00 00       	call   5729 <_ZSt9transformISt19istreambuf_iteratorIcSt11char_traitsIcEESt20back_insert_iteratorISt6vectorIhSaIhEEEZ8readFileRKNSt7__cxx1112basic_stringIcS2_SaIcEEEEUlcE_ET0_T_SH_SG_T1_>
    568a:	48 8d 95 b0 fd ff ff 	lea    -0x250(%rbp),%rdx
    5691:	48 8b 85 88 fd ff ff 	mov    -0x278(%rbp),%rax
    5698:	48 89 d6             	mov    %rdx,%rsi
    569b:	48 89 c7             	mov    %rax,%rdi
    569e:	e8 29 02 00 00       	call   58cc <_ZNSt6vectorIhSaIhEEC1EOS1_>
    56a3:	48 8d 85 b0 fd ff ff 	lea    -0x250(%rbp),%rax
    56aa:	48 89 c7             	mov    %rax,%rdi
    56ad:	e8 b2 02 00 00       	call   5964 <_ZNSt6vectorIhSaIhEED1Ev>
    56b2:	48 8d 85 e0 fd ff ff 	lea    -0x220(%rbp),%rax
    56b9:	48 89 c7             	mov    %rax,%rdi
    56bc:	e8 7f d9 ff ff       	call   3040 <_ZNSt14basic_ifstreamIcSt11char_traitsIcEED1Ev@plt>
    56c1:	48 8b 45 e8          	mov    -0x18(%rbp),%rax
    56c5:	64 48 2b 04 25 28 00 	sub    %fs:0x28,%rax
    56cc:	00 00 
    56ce:	74 4c                	je     571c <_Z8readFileRKNSt7__cxx1112basic_stringIcSt11char_traitsIcESaIcEEE+0x229>
    56d0:	eb 45                	jmp    5717 <_Z8readFileRKNSt7__cxx1112basic_stringIcSt11char_traitsIcESaIcEEE+0x224>
    56d2:	48 89 c3             	mov    %rax,%rbx
    56d5:	48 8d 85 b0 fd ff ff 	lea    -0x250(%rbp),%rax
    56dc:	48 89 c7             	mov    %rax,%rdi
    56df:	e8 80 02 00 00       	call   5964 <_ZNSt6vectorIhSaIhEED1Ev>
    56e4:	eb 03                	jmp    56e9 <_Z8readFileRKNSt7__cxx1112basic_stringIcSt11char_traitsIcESaIcEEE+0x1f6>
    56e6:	48 89 c3             	mov    %rax,%rbx
    56e9:	48 8d 85 e0 fd ff ff 	lea    -0x220(%rbp),%rax
    56f0:	48 89 c7             	mov    %rax,%rdi
    56f3:	e8 48 d9 ff ff       	call   3040 <_ZNSt14basic_ifstreamIcSt11char_traitsIcEED1Ev@plt>
    56f8:	48 89 d8             	mov    %rbx,%rax
    56fb:	48 8b 55 e8          	mov    -0x18(%rbp),%rdx
    56ff:	64 48 2b 14 25 28 00 	sub    %fs:0x28,%rdx
    5706:	00 00 
    5708:	74 05                	je     570f <_Z8readFileRKNSt7__cxx1112basic_stringIcSt11char_traitsIcESaIcEEE+0x21c>
    570a:	e8 51 da ff ff       	call   3160 <__stack_chk_fail@plt>
    570f:	48 89 c7             	mov    %rax,%rdi
    5712:	e8 69 db ff ff       	call   3280 <_Unwind_Resume@plt>
    5717:	e8 44 da ff ff       	call   3160 <__stack_chk_fail@plt>
    571c:	48 8b 85 88 fd ff ff 	mov    -0x278(%rbp),%rax
    5723:	48 8b 5d f8          	mov    -0x8(%rbp),%rbx
    5727:	c9                   	leave
    5728:	c3                   	ret

0000000000005729 <_ZSt9transformISt19istreambuf_iteratorIcSt11char_traitsIcEESt20back_insert_iteratorISt6vectorIhSaIhEEEZ8readFileRKNSt7__cxx1112basic_stringIcS2_SaIcEEEEUlcE_ET0_T_SH_SG_T1_>:
    5729:	55                   	push   %rbp
    572a:	48 89 e5             	mov    %rsp,%rbp
    572d:	48 83 ec 40          	sub    $0x40,%rsp
    5731:	48 89 f8             	mov    %rdi,%rax
    5734:	49 89 f1             	mov    %rsi,%r9
    5737:	48 89 c6             	mov    %rax,%rsi
    573a:	bf 00 00 00 00       	mov    $0x0,%edi
    573f:	4c 89 cf             	mov    %r9,%rdi
    5742:	48 89 75 e0          	mov    %rsi,-0x20(%rbp)
    5746:	48 89 7d e8          	mov    %rdi,-0x18(%rbp)
    574a:	48 89 55 d0          	mov    %rdx,-0x30(%rbp)
    574e:	48 89 4d d8          	mov    %rcx,-0x28(%rbp)
    5752:	4c 89 45 c8          	mov    %r8,-0x38(%rbp)
    5756:	64 48 8b 04 25 28 00 	mov    %fs:0x28,%rax
    575d:	00 00 
    575f:	48 89 45 f8          	mov    %rax,-0x8(%rbp)
    5763:	31 c0                	xor    %eax,%eax
    5765:	eb 56                	jmp    57bd <_ZSt9transformISt19istreambuf_iteratorIcSt11char_traitsIcEESt20back_insert_iteratorISt6vectorIhSaIhEEEZ8readFileRKNSt7__cxx1112basic_stringIcS2_SaIcEEEEUlcE_ET0_T_SH_SG_T1_+0x94>
    5767:	48 8d 45 e0          	lea    -0x20(%rbp),%rax
    576b:	48 89 c7             	mov    %rax,%rdi
    576e:	e8 63 06 00 00       	call   5dd6 <_ZNKSt19istreambuf_iteratorIcSt11char_traitsIcEEdeEv>
    5773:	0f be d0             	movsbl %al,%edx
    5776:	48 8d 45 c7          	lea    -0x39(%rbp),%rax
    577a:	89 d6                	mov    %edx,%esi
    577c:	48 89 c7             	mov    %rax,%rdi
    577f:	e8 5c fd ff ff       	call   54e0 <_ZZ8readFileRKNSt7__cxx1112basic_stringIcSt11char_traitsIcESaIcEEEENKUlcE_clEc>
    5784:	88 45 f7             	mov    %al,-0x9(%rbp)
    5787:	48 8d 45 c8          	lea    -0x38(%rbp),%rax
    578b:	48 89 c7             	mov    %rax,%rdi
    578e:	e8 35 06 00 00       	call   5dc8 <_ZNSt20back_insert_iteratorISt6vectorIhSaIhEEEdeEv>
    5793:	48 89 c2             	mov    %rax,%rdx
    5796:	48 8d 45 f7          	lea    -0x9(%rbp),%rax
    579a:	48 89 c6             	mov    %rax,%rsi
    579d:	48 89 d7             	mov    %rdx,%rdi
    57a0:	e8 7d 06 00 00       	call   5e22 <_ZNSt20back_insert_iteratorISt6vectorIhSaIhEEEaSEOh>
    57a5:	48 8d 45 e0          	lea    -0x20(%rbp),%rax
    57a9:	48 89 c7             	mov    %rax,%rdi
    57ac:	e8 db 05 00 00       	call   5d8c <_ZNSt19istreambuf_iteratorIcSt11char_traitsIcEEppEv>
    57b1:	48 8d 45 c8          	lea    -0x38(%rbp),%rax
    57b5:	48 89 c7             	mov    %rax,%rdi
    57b8:	e8 fd 05 00 00       	call   5dba <_ZNSt20back_insert_iteratorISt6vectorIhSaIhEEEppEv>
    57bd:	48 8d 55 d0          	lea    -0x30(%rbp),%rdx
    57c1:	48 8d 45 e0          	lea    -0x20(%rbp),%rax
    57c5:	48 89 d6             	mov    %rdx,%rsi
    57c8:	48 89 c7             	mov    %rax,%rdi
    57cb:	e8 94 05 00 00       	call   5d64 <_ZStneIcSt11char_traitsIcEEbRKSt19istreambuf_iteratorIT_T0_ES7_>
    57d0:	84 c0                	test   %al,%al
    57d2:	75 93                	jne    5767 <_ZSt9transformISt19istreambuf_iteratorIcSt11char_traitsIcEESt20back_insert_iteratorISt6vectorIhSaIhEEEZ8readFileRKNSt7__cxx1112basic_stringIcS2_SaIcEEEEUlcE_ET0_T_SH_SG_T1_+0x3e>
    57d4:	48 8b 45 c8          	mov    -0x38(%rbp),%rax
    57d8:	48 8b 55 f8          	mov    -0x8(%rbp),%rdx
    57dc:	64 48 2b 14 25 28 00 	sub    %fs:0x28,%rdx
    57e3:	00 00 
    57e5:	74 05                	je     57ec <_ZSt9transformISt19istreambuf_iteratorIcSt11char_traitsIcEESt20back_insert_iteratorISt6vectorIhSaIhEEEZ8readFileRKNSt7__cxx1112basic_stringIcS2_SaIcEEEEUlcE_ET0_T_SH_SG_T1_+0xc3>
    57e7:	e8 74 d9 ff ff       	call   3160 <__stack_chk_fail@plt>
    57ec:	c9                   	leave
    57ed:	c3                   	ret

00000000000057ee <_ZNSt11char_traitsIcE12to_char_typeERKi>:
    57ee:	55                   	push   %rbp
    57ef:	48 89 e5             	mov    %rsp,%rbp
    57f2:	48 89 7d f8          	mov    %rdi,-0x8(%rbp)
    57f6:	48 8b 45 f8          	mov    -0x8(%rbp),%rax
    57fa:	8b 00                	mov    (%rax),%eax
    57fc:	5d                   	pop    %rbp
    57fd:	c3                   	ret

00000000000057fe <_ZNSt11char_traitsIcE11eq_int_typeERKiS2_>:
    57fe:	55                   	push   %rbp
    57ff:	48 89 e5             	mov    %rsp,%rbp
    5802:	48 89 7d f8          	mov    %rdi,-0x8(%rbp)
    5806:	48 89 75 f0          	mov    %rsi,-0x10(%rbp)
    580a:	48 8b 45 f8          	mov    -0x8(%rbp),%rax
    580e:	8b 10                	mov    (%rax),%edx
    5810:	48 8b 45 f0          	mov    -0x10(%rbp),%rax
    5814:	8b 00                	mov    (%rax),%eax
    5816:	39 c2                	cmp    %eax,%edx
    5818:	0f 94 c0             	sete   %al
    581b:	5d                   	pop    %rbp
    581c:	c3                   	ret

000000000000581d <_ZNSt11char_traitsIcE3eofEv>:
    581d:	55                   	push   %rbp
    581e:	48 89 e5             	mov    %rsp,%rbp
    5821:	b8 ff ff ff ff       	mov    $0xffffffff,%eax
    5826:	5d                   	pop    %rbp
    5827:	c3                   	ret

0000000000005828 <_ZnwmPv>:
    5828:	55                   	push   %rbp
    5829:	48 89 e5             	mov    %rsp,%rbp
    582c:	48 89 7d f8          	mov    %rdi,-0x8(%rbp)
    5830:	48 89 75 f0          	mov    %rsi,-0x10(%rbp)
    5834:	48 8b 45 f0          	mov    -0x10(%rbp),%rax
    5838:	5d                   	pop    %rbp
    5839:	c3                   	ret

000000000000583a <_ZdlPvS_>:
    583a:	55                   	push   %rbp
    583b:	48 89 e5             	mov    %rsp,%rbp
    583e:	48 89 7d f8          	mov    %rdi,-0x8(%rbp)
    5842:	48 89 75 f0          	mov    %rsi,-0x10(%rbp)
    5846:	90                   	nop
    5847:	5d                   	pop    %rbp
    5848:	c3                   	ret
    5849:	90                   	nop

000000000000584a <_ZNSt12_Vector_baseIhSaIhEE12_Vector_implD1Ev>:
    584a:	55                   	push   %rbp
    584b:	48 89 e5             	mov    %rsp,%rbp
    584e:	48 83 ec 20          	sub    $0x20,%rsp
    5852:	48 89 7d e8          	mov    %rdi,-0x18(%rbp)
    5856:	48 8b 45 e8          	mov    -0x18(%rbp),%rax
    585a:	48 89 45 f8          	mov    %rax,-0x8(%rbp)
    585e:	48 8b 45 f8          	mov    -0x8(%rbp),%rax
    5862:	48 89 c7             	mov    %rax,%rdi
    5865:	e8 7e 03 00 00       	call   5be8 <_ZNSt15__new_allocatorIhED1Ev>
    586a:	90                   	nop
    586b:	90                   	nop
    586c:	c9                   	leave
    586d:	c3                   	ret

000000000000586e <_ZNSt12_Vector_baseIhSaIhEEC1Ev>:
    586e:	55                   	push   %rbp
    586f:	48 89 e5             	mov    %rsp,%rbp
    5872:	48 83 ec 10          	sub    $0x10,%rsp
    5876:	48 89 7d f8          	mov    %rdi,-0x8(%rbp)
    587a:	48 8b 45 f8          	mov    -0x8(%rbp),%rax
    587e:	48 89 c7             	mov    %rax,%rdi
    5881:	e8 6c 00 00 00       	call   58f2 <_ZNSt12_Vector_baseIhSaIhEE12_Vector_implC1Ev>
    5886:	90                   	nop
    5887:	c9                   	leave
    5888:	c3                   	ret
    5889:	90                   	nop

000000000000588a <_ZNSt6vectorIhSaIhEEC1Ev>:
    588a:	55                   	push   %rbp
    588b:	48 89 e5             	mov    %rsp,%rbp
    588e:	48 83 ec 10          	sub    $0x10,%rsp
    5892:	48 89 7d f8          	mov    %rdi,-0x8(%rbp)
    5896:	48 8b 45 f8          	mov    -0x8(%rbp),%rax
    589a:	48 89 c7             	mov    %rax,%rdi
    589d:	e8 cc ff ff ff       	call   586e <_ZNSt12_Vector_baseIhSaIhEEC1Ev>
    58a2:	90                   	nop
    58a3:	c9                   	leave
    58a4:	c3                   	ret
    58a5:	90                   	nop

00000000000058a6 <_ZNSt12_Vector_baseIhSaIhEEC1EOS1_>:
    58a6:	55                   	push   %rbp
    58a7:	48 89 e5             	mov    %rsp,%rbp
    58aa:	48 83 ec 10          	sub    $0x10,%rsp
    58ae:	48 89 7d f8          	mov    %rdi,-0x8(%rbp)
    58b2:	48 89 75 f0          	mov    %rsi,-0x10(%rbp)
    58b6:	48 8b 45 f8          	mov    -0x8(%rbp),%rax
    58ba:	48 8b 55 f0          	mov    -0x10(%rbp),%rdx
    58be:	48 89 d6             	mov    %rdx,%rsi
    58c1:	48 89 c7             	mov    %rax,%rdi
    58c4:	e8 99 02 00 00       	call   5b62 <_ZNSt12_Vector_baseIhSaIhEE12_Vector_implC1EOS2_>
    58c9:	90                   	nop
    58ca:	c9                   	leave
    58cb:	c3                   	ret

00000000000058cc <_ZNSt6vectorIhSaIhEEC1EOS1_>:
    58cc:	55                   	push   %rbp
    58cd:	48 89 e5             	mov    %rsp,%rbp
    58d0:	48 83 ec 10          	sub    $0x10,%rsp
    58d4:	48 89 7d f8          	mov    %rdi,-0x8(%rbp)
    58d8:	48 89 75 f0          	mov    %rsi,-0x10(%rbp)
    58dc:	48 8b 45 f8          	mov    -0x8(%rbp),%rax
    58e0:	48 8b 55 f0          	mov    -0x10(%rbp),%rdx
    58e4:	48 89 d6             	mov    %rdx,%rsi
    58e7:	48 89 c7             	mov    %rax,%rdi
    58ea:	e8 b7 ff ff ff       	call   58a6 <_ZNSt12_Vector_baseIhSaIhEEC1EOS1_>
    58ef:	90                   	nop
    58f0:	c9                   	leave
    58f1:	c3                   	ret

00000000000058f2 <_ZNSt12_Vector_baseIhSaIhEE12_Vector_implC1Ev>:
    58f2:	55                   	push   %rbp
    58f3:	48 89 e5             	mov    %rsp,%rbp
    58f6:	48 83 ec 20          	sub    $0x20,%rsp
    58fa:	48 89 7d e8          	mov    %rdi,-0x18(%rbp)
    58fe:	48 8b 45 e8          	mov    -0x18(%rbp),%rax
    5902:	48 89 45 f0          	mov    %rax,-0x10(%rbp)
    5906:	48 8b 45 f0          	mov    -0x10(%rbp),%rax
    590a:	48 89 45 f8          	mov    %rax,-0x8(%rbp)
    590e:	90                   	nop
    590f:	90                   	nop
    5910:	48 8b 45 e8          	mov    -0x18(%rbp),%rax
    5914:	48 89 c7             	mov    %rax,%rdi
    5917:	e8 9e 02 00 00       	call   5bba <_ZNSt12_Vector_baseIhSaIhEE17_Vector_impl_dataC1Ev>
    591c:	90                   	nop
    591d:	c9                   	leave
    591e:	c3                   	ret
    591f:	90                   	nop

0000000000005920 <_ZNSt12_Vector_baseIhSaIhEED1Ev>:
    5920:	55                   	push   %rbp
    5921:	48 89 e5             	mov    %rsp,%rbp
    5924:	48 83 ec 10          	sub    $0x10,%rsp
    5928:	48 89 7d f8          	mov    %rdi,-0x8(%rbp)
    592c:	48 8b 45 f8          	mov    -0x8(%rbp),%rax
    5930:	48 8b 50 10          	mov    0x10(%rax),%rdx
    5934:	48 8b 45 f8          	mov    -0x8(%rbp),%rax
    5938:	48 8b 00             	mov    (%rax),%rax
    593b:	48 29 c2             	sub    %rax,%rdx
    593e:	48 8b 45 f8          	mov    -0x8(%rbp),%rax
    5942:	48 8b 08             	mov    (%rax),%rcx
    5945:	48 8b 45 f8          	mov    -0x8(%rbp),%rax
    5949:	48 89 ce             	mov    %rcx,%rsi
    594c:	48 89 c7             	mov    %rax,%rdi
    594f:	e8 a0 02 00 00       	call   5bf4 <_ZNSt12_Vector_baseIhSaIhEE13_M_deallocateEPhm>
    5954:	48 8b 45 f8          	mov    -0x8(%rbp),%rax
    5958:	48 89 c7             	mov    %rax,%rdi
    595b:	e8 ea fe ff ff       	call   584a <_ZNSt12_Vector_baseIhSaIhEE12_Vector_implD1Ev>
    5960:	90                   	nop
    5961:	c9                   	leave
    5962:	c3                   	ret
    5963:	90                   	nop

0000000000005964 <_ZNSt6vectorIhSaIhEED1Ev>:
    5964:	55                   	push   %rbp
    5965:	48 89 e5             	mov    %rsp,%rbp
    5968:	48 83 ec 30          	sub    $0x30,%rsp
    596c:	48 89 7d d8          	mov    %rdi,-0x28(%rbp)
    5970:	48 8b 45 d8          	mov    -0x28(%rbp),%rax
    5974:	48 89 c7             	mov    %rax,%rdi
    5977:	e8 c6 02 00 00       	call   5c42 <_ZNSt12_Vector_baseIhSaIhEE19_M_get_Tp_allocatorEv>
    597c:	48 8b 55 d8          	mov    -0x28(%rbp),%rdx
    5980:	48 8b 52 08          	mov    0x8(%rdx),%rdx
    5984:	48 8b 4d d8          	mov    -0x28(%rbp),%rcx
    5988:	48 8b 09             	mov    (%rcx),%rcx
    598b:	48 89 4d e8          	mov    %rcx,-0x18(%rbp)
    598f:	48 89 55 f0          	mov    %rdx,-0x10(%rbp)
    5993:	48 89 45 f8          	mov    %rax,-0x8(%rbp)
    5997:	48 8b 55 f0          	mov    -0x10(%rbp),%rdx
    599b:	48 8b 45 e8          	mov    -0x18(%rbp),%rax
    599f:	48 89 d6             	mov    %rdx,%rsi
    59a2:	48 89 c7             	mov    %rax,%rdi
    59a5:	e8 14 05 00 00       	call   5ebe <_ZSt8_DestroyIPhEvT_S1_>
    59aa:	90                   	nop
    59ab:	48 8b 45 d8          	mov    -0x28(%rbp),%rax
    59af:	48 89 c7             	mov    %rax,%rdi
    59b2:	e8 69 ff ff ff       	call   5920 <_ZNSt12_Vector_baseIhSaIhEED1Ev>
    59b7:	90                   	nop
    59b8:	c9                   	leave
    59b9:	c3                   	ret

00000000000059ba <_ZNKSt4fposI11__mbstate_tEcvlEv>:
    59ba:	55                   	push   %rbp
    59bb:	48 89 e5             	mov    %rsp,%rbp
    59be:	48 89 7d f8          	mov    %rdi,-0x8(%rbp)
    59c2:	48 8b 45 f8          	mov    -0x8(%rbp),%rax
    59c6:	48 8b 00             	mov    (%rax),%rax
    59c9:	5d                   	pop    %rbp
    59ca:	c3                   	ret
    59cb:	90                   	nop

00000000000059cc <_ZNSt6vectorIhSaIhEE7reserveEm>:
    59cc:	55                   	push   %rbp
    59cd:	48 89 e5             	mov    %rsp,%rbp
    59d0:	48 83 ec 20          	sub    $0x20,%rsp
    59d4:	48 89 7d e8          	mov    %rdi,-0x18(%rbp)
    59d8:	48 89 75 e0          	mov    %rsi,-0x20(%rbp)
    59dc:	48 8b 45 e8          	mov    -0x18(%rbp),%rax
    59e0:	48 89 c7             	mov    %rax,%rdi
    59e3:	e8 68 02 00 00       	call   5c50 <_ZNKSt6vectorIhSaIhEE8max_sizeEv>
    59e8:	48 3b 45 e0          	cmp    -0x20(%rbp),%rax
    59ec:	0f 92 c0             	setb   %al
    59ef:	84 c0                	test   %al,%al
    59f1:	74 0f                	je     5a02 <_ZNSt6vectorIhSaIhEE7reserveEm+0x36>
    59f3:	48 8d 05 d6 38 00 00 	lea    0x38d6(%rip),%rax        # 92d0 <_IO_stdin_used+0x2d0>
    59fa:	48 89 c7             	mov    %rax,%rdi
    59fd:	e8 6e d8 ff ff       	call   3270 <_ZSt20__throw_length_errorPKc@plt>
    5a02:	48 8b 45 e8          	mov    -0x18(%rbp),%rax
    5a06:	48 89 c7             	mov    %rax,%rdi
    5a09:	e8 64 02 00 00       	call   5c72 <_ZNKSt6vectorIhSaIhEE8capacityEv>
    5a0e:	48 3b 45 e0          	cmp    -0x20(%rbp),%rax
    5a12:	0f 92 c0             	setb   %al
    5a15:	84 c0                	test   %al,%al
    5a17:	0f 84 b3 00 00 00    	je     5ad0 <_ZNSt6vectorIhSaIhEE7reserveEm+0x104>
    5a1d:	48 8b 45 e8          	mov    -0x18(%rbp),%rax
    5a21:	48 89 c7             	mov    %rax,%rdi
    5a24:	e8 73 02 00 00       	call   5c9c <_ZNKSt6vectorIhSaIhEE4sizeEv>
    5a29:	48 89 45 f0          	mov    %rax,-0x10(%rbp)
    5a2d:	48 8b 45 e8          	mov    -0x18(%rbp),%rax
    5a31:	48 8b 55 e0          	mov    -0x20(%rbp),%rdx
    5a35:	48 89 d6             	mov    %rdx,%rsi
    5a38:	48 89 c7             	mov    %rax,%rdi
    5a3b:	e8 86 02 00 00       	call   5cc6 <_ZNSt12_Vector_baseIhSaIhEE11_M_allocateEm>
    5a40:	48 89 45 f8          	mov    %rax,-0x8(%rbp)
    5a44:	48 8b 45 e8          	mov    -0x18(%rbp),%rax
    5a48:	48 89 c7             	mov    %rax,%rdi
    5a4b:	e8 f2 01 00 00       	call   5c42 <_ZNSt12_Vector_baseIhSaIhEE19_M_get_Tp_allocatorEv>
    5a50:	48 89 c1             	mov    %rax,%rcx
    5a53:	48 8b 45 e8          	mov    -0x18(%rbp),%rax
    5a57:	48 8b 70 08          	mov    0x8(%rax),%rsi
    5a5b:	48 8b 45 e8          	mov    -0x18(%rbp),%rax
    5a5f:	48 8b 00             	mov    (%rax),%rax
    5a62:	48 8b 55 f8          	mov    -0x8(%rbp),%rdx
    5a66:	48 89 c7             	mov    %rax,%rdi
    5a69:	e8 a1 02 00 00       	call   5d0f <_ZNSt6vectorIhSaIhEE11_S_relocateEPhS2_S2_RS0_>
    5a6e:	48 8b 45 e8          	mov    -0x18(%rbp),%rax
    5a72:	48 8b 55 e8          	mov    -0x18(%rbp),%rdx
    5a76:	48 8b 4a 10          	mov    0x10(%rdx),%rcx
    5a7a:	48 8b 55 e8          	mov    -0x18(%rbp),%rdx
    5a7e:	48 8b 12             	mov    (%rdx),%rdx
    5a81:	48 29 d1             	sub    %rdx,%rcx
    5a84:	48 89 ce             	mov    %rcx,%rsi
    5a87:	48 8b 55 e8          	mov    -0x18(%rbp),%rdx
    5a8b:	48 8b 0a             	mov    (%rdx),%rcx
    5a8e:	48 89 f2             	mov    %rsi,%rdx
    5a91:	48 89 ce             	mov    %rcx,%rsi
    5a94:	48 89 c7             	mov    %rax,%rdi
    5a97:	e8 58 01 00 00       	call   5bf4 <_ZNSt12_Vector_baseIhSaIhEE13_M_deallocateEPhm>
    5a9c:	48 8b 45 e8          	mov    -0x18(%rbp),%rax
    5aa0:	48 8b 55 f8          	mov    -0x8(%rbp),%rdx
    5aa4:	48 89 10             	mov    %rdx,(%rax)
    5aa7:	48 8b 55 f8          	mov    -0x8(%rbp),%rdx
    5aab:	48 8b 45 f0          	mov    -0x10(%rbp),%rax
    5aaf:	48 01 c2             	add    %rax,%rdx
    5ab2:	48 8b 45 e8          	mov    -0x18(%rbp),%rax
    5ab6:	48 89 50 08          	mov    %rdx,0x8(%rax)
    5aba:	48 8b 45 e8          	mov    -0x18(%rbp),%rax
    5abe:	48 8b 10             	mov    (%rax),%rdx
    5ac1:	48 8b 45 e0          	mov    -0x20(%rbp),%rax
    5ac5:	48 01 c2             	add    %rax,%rdx
    5ac8:	48 8b 45 e8          	mov    -0x18(%rbp),%rax
    5acc:	48 89 50 10          	mov    %rdx,0x10(%rax)
    5ad0:	90                   	nop
    5ad1:	c9                   	leave
    5ad2:	c3                   	ret
    5ad3:	90                   	nop

0000000000005ad4 <_ZNSt19istreambuf_iteratorIcSt11char_traitsIcEEC1ERSi>:
    5ad4:	55                   	push   %rbp
    5ad5:	48 89 e5             	mov    %rsp,%rbp
    5ad8:	48 83 ec 10          	sub    $0x10,%rsp
    5adc:	48 89 7d f8          	mov    %rdi,-0x8(%rbp)
    5ae0:	48 89 75 f0          	mov    %rsi,-0x10(%rbp)
    5ae4:	48 8b 45 f0          	mov    -0x10(%rbp),%rax
    5ae8:	48 8b 00             	mov    (%rax),%rax
    5aeb:	48 83 e8 18          	sub    $0x18,%rax
    5aef:	48 8b 00             	mov    (%rax),%rax
    5af2:	48 89 c2             	mov    %rax,%rdx
    5af5:	48 8b 45 f0          	mov    -0x10(%rbp),%rax
    5af9:	48 01 d0             	add    %rdx,%rax
    5afc:	48 89 c7             	mov    %rax,%rdi
    5aff:	e8 ac d5 ff ff       	call   30b0 <_ZNKSt9basic_iosIcSt11char_traitsIcEE5rdbufEv@plt>
    5b04:	48 8b 55 f8          	mov    -0x8(%rbp),%rdx
    5b08:	48 89 02             	mov    %rax,(%rdx)
    5b0b:	e8 0d fd ff ff       	call   581d <_ZNSt11char_traitsIcE3eofEv>
    5b10:	48 8b 55 f8          	mov    -0x8(%rbp),%rdx
    5b14:	89 42 08             	mov    %eax,0x8(%rdx)
    5b17:	90                   	nop
    5b18:	c9                   	leave
    5b19:	c3                   	ret

0000000000005b1a <_ZSt13back_inserterISt6vectorIhSaIhEEESt20back_insert_iteratorIT_ERS4_>:
    5b1a:	55                   	push   %rbp
    5b1b:	48 89 e5             	mov    %rsp,%rbp
    5b1e:	48 83 ec 20          	sub    $0x20,%rsp
    5b22:	48 89 7d e8          	mov    %rdi,-0x18(%rbp)
    5b26:	64 48 8b 04 25 28 00 	mov    %fs:0x28,%rax
    5b2d:	00 00 
    5b2f:	48 89 45 f8          	mov    %rax,-0x8(%rbp)
    5b33:	31 c0                	xor    %eax,%eax
    5b35:	48 8b 55 e8          	mov    -0x18(%rbp),%rdx
    5b39:	48 8d 45 f0          	lea    -0x10(%rbp),%rax
    5b3d:	48 89 d6             	mov    %rdx,%rsi
    5b40:	48 89 c7             	mov    %rax,%rdi
    5b43:	e8 fa 01 00 00       	call   5d42 <_ZNSt20back_insert_iteratorISt6vectorIhSaIhEEEC1ERS2_>
    5b48:	48 8b 45 f0          	mov    -0x10(%rbp),%rax
    5b4c:	48 8b 55 f8          	mov    -0x8(%rbp),%rdx
    5b50:	64 48 2b 14 25 28 00 	sub    %fs:0x28,%rdx
    5b57:	00 00 
    5b59:	74 05                	je     5b60 <_ZSt13back_inserterISt6vectorIhSaIhEEESt20back_insert_iteratorIT_ERS4_+0x46>
    5b5b:	e8 00 d6 ff ff       	call   3160 <__stack_chk_fail@plt>
    5b60:	c9                   	leave
    5b61:	c3                   	ret

0000000000005b62 <_ZNSt12_Vector_baseIhSaIhEE12_Vector_implC1EOS2_>:
    5b62:	55                   	push   %rbp
    5b63:	48 89 e5             	mov    %rsp,%rbp
    5b66:	48 83 ec 40          	sub    $0x40,%rsp
    5b6a:	48 89 7d c8          	mov    %rdi,-0x38(%rbp)
    5b6e:	48 89 75 c0          	mov    %rsi,-0x40(%rbp)
    5b72:	48 8b 45 c0          	mov    -0x40(%rbp),%rax
    5b76:	48 89 45 f8          	mov    %rax,-0x8(%rbp)
    5b7a:	48 8b 45 f8          	mov    -0x8(%rbp),%rax
    5b7e:	48 8b 55 c8          	mov    -0x38(%rbp),%rdx
    5b82:	48 89 55 d8          	mov    %rdx,-0x28(%rbp)
    5b86:	48 89 45 e0          	mov    %rax,-0x20(%rbp)
    5b8a:	48 8b 45 d8          	mov    -0x28(%rbp),%rax
    5b8e:	48 89 45 e8          	mov    %rax,-0x18(%rbp)
    5b92:	48 8b 45 e0          	mov    -0x20(%rbp),%rax
    5b96:	48 89 45 f0          	mov    %rax,-0x10(%rbp)
    5b9a:	90                   	nop
    5b9b:	90                   	nop
    5b9c:	48 8b 45 c8          	mov    -0x38(%rbp),%rax
    5ba0:	48 8b 55 c0          	mov    -0x40(%rbp),%rdx
    5ba4:	48 89 55 d0          	mov    %rdx,-0x30(%rbp)
    5ba8:	48 8b 55 d0          	mov    -0x30(%rbp),%rdx
    5bac:	48 89 d6             	mov    %rdx,%rsi
    5baf:	48 89 c7             	mov    %rax,%rdi
    5bb2:	e8 9f 02 00 00       	call   5e56 <_ZNSt12_Vector_baseIhSaIhEE17_Vector_impl_dataC1EOS2_>
    5bb7:	90                   	nop
    5bb8:	c9                   	leave
    5bb9:	c3                   	ret

0000000000005bba <_ZNSt12_Vector_baseIhSaIhEE17_Vector_impl_dataC1Ev>:
    5bba:	55                   	push   %rbp
    5bbb:	48 89 e5             	mov    %rsp,%rbp
    5bbe:	48 89 7d f8          	mov    %rdi,-0x8(%rbp)
    5bc2:	48 8b 45 f8          	mov    -0x8(%rbp),%rax
    5bc6:	48 c7 00 00 00 00 00 	movq   $0x0,(%rax)
    5bcd:	48 8b 45 f8          	mov    -0x8(%rbp),%rax
    5bd1:	48 c7 40 08 00 00 00 	movq   $0x0,0x8(%rax)
    5bd8:	00 
    5bd9:	48 8b 45 f8          	mov    -0x8(%rbp),%rax
    5bdd:	48 c7 40 10 00 00 00 	movq   $0x0,0x10(%rax)
    5be4:	00 
    5be5:	90                   	nop
    5be6:	5d                   	pop    %rbp
    5be7:	c3                   	ret

0000000000005be8 <_ZNSt15__new_allocatorIhED1Ev>:
    5be8:	55                   	push   %rbp
    5be9:	48 89 e5             	mov    %rsp,%rbp
    5bec:	48 89 7d f8          	mov    %rdi,-0x8(%rbp)
    5bf0:	90                   	nop
    5bf1:	5d                   	pop    %rbp
    5bf2:	c3                   	ret
    5bf3:	90                   	nop

0000000000005bf4 <_ZNSt12_Vector_baseIhSaIhEE13_M_deallocateEPhm>:
    5bf4:	55                   	push   %rbp
    5bf5:	48 89 e5             	mov    %rsp,%rbp
    5bf8:	48 83 ec 40          	sub    $0x40,%rsp
    5bfc:	48 89 7d d8          	mov    %rdi,-0x28(%rbp)
    5c00:	48 89 75 d0          	mov    %rsi,-0x30(%rbp)
    5c04:	48 89 55 c8          	mov    %rdx,-0x38(%rbp)
    5c08:	48 83 7d d0 00       	cmpq   $0x0,-0x30(%rbp)
    5c0d:	74 30                	je     5c3f <_ZNSt12_Vector_baseIhSaIhEE13_M_deallocateEPhm+0x4b>
    5c0f:	48 8b 45 d8          	mov    -0x28(%rbp),%rax
    5c13:	48 89 45 e8          	mov    %rax,-0x18(%rbp)
    5c17:	48 8b 45 d0          	mov    -0x30(%rbp),%rax
    5c1b:	48 89 45 f0          	mov    %rax,-0x10(%rbp)
    5c1f:	48 8b 45 c8          	mov    -0x38(%rbp),%rax
    5c23:	48 89 45 f8          	mov    %rax,-0x8(%rbp)
    5c27:	48 8b 55 f8          	mov    -0x8(%rbp),%rdx
    5c2b:	48 8b 4d f0          	mov    -0x10(%rbp),%rcx
    5c2f:	48 8b 45 e8          	mov    -0x18(%rbp),%rax
    5c33:	48 89 ce             	mov    %rcx,%rsi
    5c36:	48 89 c7             	mov    %rax,%rdi
    5c39:	e8 38 04 00 00       	call   6076 <_ZNSt15__new_allocatorIhE10deallocateEPhm>
    5c3e:	90                   	nop
    5c3f:	90                   	nop
    5c40:	c9                   	leave
    5c41:	c3                   	ret

0000000000005c42 <_ZNSt12_Vector_baseIhSaIhEE19_M_get_Tp_allocatorEv>:
    5c42:	55                   	push   %rbp
    5c43:	48 89 e5             	mov    %rsp,%rbp
    5c46:	48 89 7d f8          	mov    %rdi,-0x8(%rbp)
    5c4a:	48 8b 45 f8          	mov    -0x8(%rbp),%rax
    5c4e:	5d                   	pop    %rbp
    5c4f:	c3                   	ret

0000000000005c50 <_ZNKSt6vectorIhSaIhEE8max_sizeEv>:
    5c50:	55                   	push   %rbp
    5c51:	48 89 e5             	mov    %rsp,%rbp
    5c54:	48 83 ec 10          	sub    $0x10,%rsp
    5c58:	48 89 7d f8          	mov    %rdi,-0x8(%rbp)
    5c5c:	48 8b 45 f8          	mov    -0x8(%rbp),%rax
    5c60:	48 89 c7             	mov    %rax,%rdi
    5c63:	e8 e2 02 00 00       	call   5f4a <_ZNKSt12_Vector_baseIhSaIhEE19_M_get_Tp_allocatorEv>
    5c68:	48 89 c7             	mov    %rax,%rdi
    5c6b:	e8 5d 02 00 00       	call   5ecd <_ZNSt6vectorIhSaIhEE11_S_max_sizeERKS0_>
    5c70:	c9                   	leave
    5c71:	c3                   	ret

0000000000005c72 <_ZNKSt6vectorIhSaIhEE8capacityEv>:
    5c72:	55                   	push   %rbp
    5c73:	48 89 e5             	mov    %rsp,%rbp
    5c76:	48 89 7d e8          	mov    %rdi,-0x18(%rbp)
    5c7a:	48 8b 45 e8          	mov    -0x18(%rbp),%rax
    5c7e:	48 8b 50 10          	mov    0x10(%rax),%rdx
    5c82:	48 8b 45 e8          	mov    -0x18(%rbp),%rax
    5c86:	48 8b 00             	mov    (%rax),%rax
    5c89:	48 29 c2             	sub    %rax,%rdx
    5c8c:	48 89 55 f8          	mov    %rdx,-0x8(%rbp)
    5c90:	48 83 7d f8 00       	cmpq   $0x0,-0x8(%rbp)
    5c95:	48 8b 45 f8          	mov    -0x8(%rbp),%rax
    5c99:	5d                   	pop    %rbp
    5c9a:	c3                   	ret
    5c9b:	90                   	nop

0000000000005c9c <_ZNKSt6vectorIhSaIhEE4sizeEv>:
    5c9c:	55                   	push   %rbp
    5c9d:	48 89 e5             	mov    %rsp,%rbp
    5ca0:	48 89 7d e8          	mov    %rdi,-0x18(%rbp)
    5ca4:	48 8b 45 e8          	mov    -0x18(%rbp),%rax
    5ca8:	48 8b 50 08          	mov    0x8(%rax),%rdx
    5cac:	48 8b 45 e8          	mov    -0x18(%rbp),%rax
    5cb0:	48 8b 00             	mov    (%rax),%rax
    5cb3:	48 29 c2             	sub    %rax,%rdx
    5cb6:	48 89 55 f8          	mov    %rdx,-0x8(%rbp)
    5cba:	48 83 7d f8 00       	cmpq   $0x0,-0x8(%rbp)
    5cbf:	48 8b 45 f8          	mov    -0x8(%rbp),%rax
    5cc3:	5d                   	pop    %rbp
    5cc4:	c3                   	ret
    5cc5:	90                   	nop

0000000000005cc6 <_ZNSt12_Vector_baseIhSaIhEE11_M_allocateEm>:
    5cc6:	55                   	push   %rbp
    5cc7:	48 89 e5             	mov    %rsp,%rbp
    5cca:	48 83 ec 20          	sub    $0x20,%rsp
    5cce:	48 89 7d e8          	mov    %rdi,-0x18(%rbp)
    5cd2:	48 89 75 e0          	mov    %rsi,-0x20(%rbp)
    5cd6:	48 83 7d e0 00       	cmpq   $0x0,-0x20(%rbp)
    5cdb:	74 2b                	je     5d08 <_ZNSt12_Vector_baseIhSaIhEE11_M_allocateEm+0x42>
    5cdd:	48 8b 45 e8          	mov    -0x18(%rbp),%rax
    5ce1:	48 89 45 f0          	mov    %rax,-0x10(%rbp)
    5ce5:	48 8b 45 e0          	mov    -0x20(%rbp),%rax
    5ce9:	48 89 45 f8          	mov    %rax,-0x8(%rbp)
    5ced:	48 8b 4d f8          	mov    -0x8(%rbp),%rcx
    5cf1:	48 8b 45 f0          	mov    -0x10(%rbp),%rax
    5cf5:	ba 00 00 00 00       	mov    $0x0,%edx
    5cfa:	48 89 ce             	mov    %rcx,%rsi
    5cfd:	48 89 c7             	mov    %rax,%rdi
    5d00:	e8 9b 03 00 00       	call   60a0 <_ZNSt15__new_allocatorIhE8allocateEmPKv>
    5d05:	90                   	nop
    5d06:	eb 05                	jmp    5d0d <_ZNSt12_Vector_baseIhSaIhEE11_M_allocateEm+0x47>
    5d08:	b8 00 00 00 00       	mov    $0x0,%eax
    5d0d:	c9                   	leave
    5d0e:	c3                   	ret

0000000000005d0f <_ZNSt6vectorIhSaIhEE11_S_relocateEPhS2_S2_RS0_>:
    5d0f:	55                   	push   %rbp
    5d10:	48 89 e5             	mov    %rsp,%rbp
    5d13:	48 83 ec 20          	sub    $0x20,%rsp
    5d17:	48 89 7d f8          	mov    %rdi,-0x8(%rbp)
    5d1b:	48 89 75 f0          	mov    %rsi,-0x10(%rbp)
    5d1f:	48 89 55 e8          	mov    %rdx,-0x18(%rbp)
    5d23:	48 89 4d e0          	mov    %rcx,-0x20(%rbp)
    5d27:	48 8b 4d e0          	mov    -0x20(%rbp),%rcx
    5d2b:	48 8b 55 e8          	mov    -0x18(%rbp),%rdx
    5d2f:	48 8b 75 f0          	mov    -0x10(%rbp),%rsi
    5d33:	48 8b 45 f8          	mov    -0x8(%rbp),%rax
    5d37:	48 89 c7             	mov    %rax,%rdi
    5d3a:	e8 19 02 00 00       	call   5f58 <_ZSt12__relocate_aIPhS0_SaIhEET0_T_S3_S2_RT1_>
    5d3f:	c9                   	leave
    5d40:	c3                   	ret
    5d41:	90                   	nop

0000000000005d42 <_ZNSt20back_insert_iteratorISt6vectorIhSaIhEEEC1ERS2_>:
    5d42:	55                   	push   %rbp
    5d43:	48 89 e5             	mov    %rsp,%rbp
    5d46:	48 89 7d e8          	mov    %rdi,-0x18(%rbp)
    5d4a:	48 89 75 e0          	mov    %rsi,-0x20(%rbp)
    5d4e:	48 8b 45 e0          	mov    -0x20(%rbp),%rax
    5d52:	48 89 45 f8          	mov    %rax,-0x8(%rbp)
    5d56:	48 8b 55 f8          	mov    -0x8(%rbp),%rdx
    5d5a:	48 8b 45 e8          	mov    -0x18(%rbp),%rax
    5d5e:	48 89 10             	mov    %rdx,(%rax)
    5d61:	90                   	nop
    5d62:	5d                   	pop    %rbp
    5d63:	c3                   	ret

0000000000005d64 <_ZStneIcSt11char_traitsIcEEbRKSt19istreambuf_iteratorIT_T0_ES7_>:
    5d64:	55                   	push   %rbp
    5d65:	48 89 e5             	mov    %rsp,%rbp
    5d68:	48 83 ec 10          	sub    $0x10,%rsp
    5d6c:	48 89 7d f8          	mov    %rdi,-0x8(%rbp)
    5d70:	48 89 75 f0          	mov    %rsi,-0x10(%rbp)
    5d74:	48 8b 55 f0          	mov    -0x10(%rbp),%rdx
    5d78:	48 8b 45 f8          	mov    -0x8(%rbp),%rax
    5d7c:	48 89 d6             	mov    %rdx,%rsi
    5d7f:	48 89 c7             	mov    %rax,%rdi
    5d82:	e8 1b 02 00 00       	call   5fa2 <_ZNKSt19istreambuf_iteratorIcSt11char_traitsIcEE5equalERKS2_>
    5d87:	83 f0 01             	xor    $0x1,%eax
    5d8a:	c9                   	leave
    5d8b:	c3                   	ret

0000000000005d8c <_ZNSt19istreambuf_iteratorIcSt11char_traitsIcEEppEv>:
    5d8c:	55                   	push   %rbp
    5d8d:	48 89 e5             	mov    %rsp,%rbp
    5d90:	48 83 ec 10          	sub    $0x10,%rsp
    5d94:	48 89 7d f8          	mov    %rdi,-0x8(%rbp)
    5d98:	48 8b 45 f8          	mov    -0x8(%rbp),%rax
    5d9c:	48 8b 00             	mov    (%rax),%rax
    5d9f:	48 89 c7             	mov    %rax,%rdi
    5da2:	e8 49 d5 ff ff       	call   32f0 <_ZNSt15basic_streambufIcSt11char_traitsIcEE6sbumpcEv@plt>
    5da7:	e8 71 fa ff ff       	call   581d <_ZNSt11char_traitsIcE3eofEv>
    5dac:	48 8b 55 f8          	mov    -0x8(%rbp),%rdx
    5db0:	89 42 08             	mov    %eax,0x8(%rdx)
    5db3:	48 8b 45 f8          	mov    -0x8(%rbp),%rax
    5db7:	c9                   	leave
    5db8:	c3                   	ret
    5db9:	90                   	nop

0000000000005dba <_ZNSt20back_insert_iteratorISt6vectorIhSaIhEEEppEv>:
    5dba:	55                   	push   %rbp
    5dbb:	48 89 e5             	mov    %rsp,%rbp
    5dbe:	48 89 7d f8          	mov    %rdi,-0x8(%rbp)
    5dc2:	48 8b 45 f8          	mov    -0x8(%rbp),%rax
    5dc6:	5d                   	pop    %rbp
    5dc7:	c3                   	ret

0000000000005dc8 <_ZNSt20back_insert_iteratorISt6vectorIhSaIhEEEdeEv>:
    5dc8:	55                   	push   %rbp
    5dc9:	48 89 e5             	mov    %rsp,%rbp
    5dcc:	48 89 7d f8          	mov    %rdi,-0x8(%rbp)
    5dd0:	48 8b 45 f8          	mov    -0x8(%rbp),%rax
    5dd4:	5d                   	pop    %rbp
    5dd5:	c3                   	ret

0000000000005dd6 <_ZNKSt19istreambuf_iteratorIcSt11char_traitsIcEEdeEv>:
    5dd6:	55                   	push   %rbp
    5dd7:	48 89 e5             	mov    %rsp,%rbp
    5dda:	48 83 ec 20          	sub    $0x20,%rsp
    5dde:	48 89 7d e8          	mov    %rdi,-0x18(%rbp)
    5de2:	64 48 8b 04 25 28 00 	mov    %fs:0x28,%rax
    5de9:	00 00 
    5deb:	48 89 45 f8          	mov    %rax,-0x8(%rbp)
    5def:	31 c0                	xor    %eax,%eax
    5df1:	48 8b 45 e8          	mov    -0x18(%rbp),%rax
    5df5:	48 89 c7             	mov    %rax,%rdi
    5df8:	e8 db 01 00 00       	call   5fd8 <_ZNKSt19istreambuf_iteratorIcSt11char_traitsIcEE6_M_getEv>
    5dfd:	89 45 f4             	mov    %eax,-0xc(%rbp)
    5e00:	48 8d 45 f4          	lea    -0xc(%rbp),%rax
    5e04:	48 89 c7             	mov    %rax,%rdi
    5e07:	e8 e2 f9 ff ff       	call   57ee <_ZNSt11char_traitsIcE12to_char_typeERKi>
    5e0c:	48 8b 55 f8          	mov    -0x8(%rbp),%rdx
    5e10:	64 48 2b 14 25 28 00 	sub    %fs:0x28,%rdx
    5e17:	00 00 
    5e19:	74 05                	je     5e20 <_ZNKSt19istreambuf_iteratorIcSt11char_traitsIcEEdeEv+0x4a>
    5e1b:	e8 40 d3 ff ff       	call   3160 <__stack_chk_fail@plt>
    5e20:	c9                   	leave
    5e21:	c3                   	ret

0000000000005e22 <_ZNSt20back_insert_iteratorISt6vectorIhSaIhEEEaSEOh>:
    5e22:	55                   	push   %rbp
    5e23:	48 89 e5             	mov    %rsp,%rbp
    5e26:	48 83 ec 20          	sub    $0x20,%rsp
    5e2a:	48 89 7d e8          	mov    %rdi,-0x18(%rbp)
    5e2e:	48 89 75 e0          	mov    %rsi,-0x20(%rbp)
    5e32:	48 8b 45 e8          	mov    -0x18(%rbp),%rax
    5e36:	48 8b 00             	mov    (%rax),%rax
    5e39:	48 8b 55 e0          	mov    -0x20(%rbp),%rdx
    5e3d:	48 89 55 f8          	mov    %rdx,-0x8(%rbp)
    5e41:	48 8b 55 f8          	mov    -0x8(%rbp),%rdx
    5e45:	48 89 d6             	mov    %rdx,%rsi
    5e48:	48 89 c7             	mov    %rax,%rdi
    5e4b:	e8 f8 01 00 00       	call   6048 <_ZNSt6vectorIhSaIhEE9push_backEOh>
    5e50:	48 8b 45 e8          	mov    -0x18(%rbp),%rax
    5e54:	c9                   	leave
    5e55:	c3                   	ret

0000000000005e56 <_ZNSt12_Vector_baseIhSaIhEE17_Vector_impl_dataC1EOS2_>:
    5e56:	55                   	push   %rbp
    5e57:	48 89 e5             	mov    %rsp,%rbp
    5e5a:	48 89 7d f8          	mov    %rdi,-0x8(%rbp)
    5e5e:	48 89 75 f0          	mov    %rsi,-0x10(%rbp)
    5e62:	48 8b 45 f0          	mov    -0x10(%rbp),%rax
    5e66:	48 8b 10             	mov    (%rax),%rdx
    5e69:	48 8b 45 f8          	mov    -0x8(%rbp),%rax
    5e6d:	48 89 10             	mov    %rdx,(%rax)
    5e70:	48 8b 45 f0          	mov    -0x10(%rbp),%rax
    5e74:	48 8b 50 08          	mov    0x8(%rax),%rdx
    5e78:	48 8b 45 f8          	mov    -0x8(%rbp),%rax
    5e7c:	48 89 50 08          	mov    %rdx,0x8(%rax)
    5e80:	48 8b 45 f0          	mov    -0x10(%rbp),%rax
    5e84:	48 8b 50 10          	mov    0x10(%rax),%rdx
    5e88:	48 8b 45 f8          	mov    -0x8(%rbp),%rax
    5e8c:	48 89 50 10          	mov    %rdx,0x10(%rax)
    5e90:	48 8b 45 f0          	mov    -0x10(%rbp),%rax
    5e94:	48 c7 40 10 00 00 00 	movq   $0x0,0x10(%rax)
    5e9b:	00 
    5e9c:	48 8b 45 f0          	mov    -0x10(%rbp),%rax
    5ea0:	48 8b 50 10          	mov    0x10(%rax),%rdx
    5ea4:	48 8b 45 f0          	mov    -0x10(%rbp),%rax
    5ea8:	48 89 50 08          	mov    %rdx,0x8(%rax)
    5eac:	48 8b 45 f0          	mov    -0x10(%rbp),%rax
    5eb0:	48 8b 50 08          	mov    0x8(%rax),%rdx
    5eb4:	48 8b 45 f0          	mov    -0x10(%rbp),%rax
    5eb8:	48 89 10             	mov    %rdx,(%rax)
    5ebb:	90                   	nop
    5ebc:	5d                   	pop    %rbp
    5ebd:	c3                   	ret

0000000000005ebe <_ZSt8_DestroyIPhEvT_S1_>:
    5ebe:	55                   	push   %rbp
    5ebf:	48 89 e5             	mov    %rsp,%rbp
    5ec2:	48 89 7d f8          	mov    %rdi,-0x8(%rbp)
    5ec6:	48 89 75 f0          	mov    %rsi,-0x10(%rbp)
    5eca:	90                   	nop
    5ecb:	5d                   	pop    %rbp
    5ecc:	c3                   	ret

0000000000005ecd <_ZNSt6vectorIhSaIhEE11_S_max_sizeERKS0_>:
    5ecd:	55                   	push   %rbp
    5ece:	48 89 e5             	mov    %rsp,%rbp
    5ed1:	48 83 ec 40          	sub    $0x40,%rsp
    5ed5:	48 89 7d c8          	mov    %rdi,-0x38(%rbp)
    5ed9:	64 48 8b 04 25 28 00 	mov    %fs:0x28,%rax
    5ee0:	00 00 
    5ee2:	48 89 45 f8          	mov    %rax,-0x8(%rbp)
    5ee6:	31 c0                	xor    %eax,%eax
    5ee8:	48 b8 ff ff ff ff ff 	movabs $0x7fffffffffffffff,%rax
    5eef:	ff ff 7f 
    5ef2:	48 89 45 d0          	mov    %rax,-0x30(%rbp)
    5ef6:	48 8b 45 c8          	mov    -0x38(%rbp),%rax
    5efa:	48 89 45 e0          	mov    %rax,-0x20(%rbp)
    5efe:	48 8b 45 e0          	mov    -0x20(%rbp),%rax
    5f02:	48 89 45 e8          	mov    %rax,-0x18(%rbp)
    5f06:	48 8b 45 e8          	mov    -0x18(%rbp),%rax
    5f0a:	48 89 45 f0          	mov    %rax,-0x10(%rbp)
    5f0e:	48 b8 ff ff ff ff ff 	movabs $0x7fffffffffffffff,%rax
    5f15:	ff ff 7f 
    5f18:	90                   	nop
    5f19:	90                   	nop
    5f1a:	48 89 45 d8          	mov    %rax,-0x28(%rbp)
    5f1e:	48 8d 55 d8          	lea    -0x28(%rbp),%rdx
    5f22:	48 8d 45 d0          	lea    -0x30(%rbp),%rax
    5f26:	48 89 d6             	mov    %rdx,%rsi
    5f29:	48 89 c7             	mov    %rax,%rdi
    5f2c:	e8 9b ef ff ff       	call   4ecc <_ZSt3minImERKT_S2_S2_>
    5f31:	48 8b 00             	mov    (%rax),%rax
    5f34:	48 8b 55 f8          	mov    -0x8(%rbp),%rdx
    5f38:	64 48 2b 14 25 28 00 	sub    %fs:0x28,%rdx
    5f3f:	00 00 
    5f41:	74 05                	je     5f48 <_ZNSt6vectorIhSaIhEE11_S_max_sizeERKS0_+0x7b>
    5f43:	e8 18 d2 ff ff       	call   3160 <__stack_chk_fail@plt>
    5f48:	c9                   	leave
    5f49:	c3                   	ret

0000000000005f4a <_ZNKSt12_Vector_baseIhSaIhEE19_M_get_Tp_allocatorEv>:
    5f4a:	55                   	push   %rbp
    5f4b:	48 89 e5             	mov    %rsp,%rbp
    5f4e:	48 89 7d f8          	mov    %rdi,-0x8(%rbp)
    5f52:	48 8b 45 f8          	mov    -0x8(%rbp),%rax
    5f56:	5d                   	pop    %rbp
    5f57:	c3                   	ret

0000000000005f58 <_ZSt12__relocate_aIPhS0_SaIhEET0_T_S3_S2_RT1_>:
    5f58:	55                   	push   %rbp
    5f59:	48 89 e5             	mov    %rsp,%rbp
    5f5c:	48 83 ec 40          	sub    $0x40,%rsp
    5f60:	48 89 7d d8          	mov    %rdi,-0x28(%rbp)
    5f64:	48 89 75 d0          	mov    %rsi,-0x30(%rbp)
    5f68:	48 89 55 c8          	mov    %rdx,-0x38(%rbp)
    5f6c:	48 89 4d c0          	mov    %rcx,-0x40(%rbp)
    5f70:	48 8b 45 c8          	mov    -0x38(%rbp),%rax
    5f74:	48 89 45 f8          	mov    %rax,-0x8(%rbp)
    5f78:	48 8b 55 f8          	mov    -0x8(%rbp),%rdx
    5f7c:	48 8b 45 d0          	mov    -0x30(%rbp),%rax
    5f80:	48 89 45 f0          	mov    %rax,-0x10(%rbp)
    5f84:	48 8b 75 f0          	mov    -0x10(%rbp),%rsi
    5f88:	48 8b 45 d8          	mov    -0x28(%rbp),%rax
    5f8c:	48 89 45 e8          	mov    %rax,-0x18(%rbp)
    5f90:	48 8b 45 e8          	mov    -0x18(%rbp),%rax
    5f94:	48 8b 4d c0          	mov    -0x40(%rbp),%rcx
    5f98:	48 89 c7             	mov    %rax,%rdi
    5f9b:	e8 4e 01 00 00       	call   60ee <_ZSt14__relocate_a_1IhhENSt9enable_ifIXsrSt24__is_bitwise_relocatableIT_vE5valueEPS2_E4typeES4_S4_S4_RSaIT0_E>
    5fa0:	c9                   	leave
    5fa1:	c3                   	ret

0000000000005fa2 <_ZNKSt19istreambuf_iteratorIcSt11char_traitsIcEE5equalERKS2_>:
    5fa2:	55                   	push   %rbp
    5fa3:	48 89 e5             	mov    %rsp,%rbp
    5fa6:	53                   	push   %rbx
    5fa7:	48 83 ec 18          	sub    $0x18,%rsp
    5fab:	48 89 7d e8          	mov    %rdi,-0x18(%rbp)
    5faf:	48 89 75 e0          	mov    %rsi,-0x20(%rbp)
    5fb3:	48 8b 45 e8          	mov    -0x18(%rbp),%rax
    5fb7:	48 89 c7             	mov    %rax,%rdi
    5fba:	e8 81 01 00 00       	call   6140 <_ZNKSt19istreambuf_iteratorIcSt11char_traitsIcEE9_M_at_eofEv>
    5fbf:	89 c3                	mov    %eax,%ebx
    5fc1:	48 8b 45 e0          	mov    -0x20(%rbp),%rax
    5fc5:	48 89 c7             	mov    %rax,%rdi
    5fc8:	e8 73 01 00 00       	call   6140 <_ZNKSt19istreambuf_iteratorIcSt11char_traitsIcEE9_M_at_eofEv>
    5fcd:	38 c3                	cmp    %al,%bl
    5fcf:	0f 94 c0             	sete   %al
    5fd2:	48 8b 5d f8          	mov    -0x8(%rbp),%rbx
    5fd6:	c9                   	leave
    5fd7:	c3                   	ret

0000000000005fd8 <_ZNKSt19istreambuf_iteratorIcSt11char_traitsIcEE6_M_getEv>:
    5fd8:	55                   	push   %rbp
    5fd9:	48 89 e5             	mov    %rsp,%rbp
    5fdc:	48 83 ec 20          	sub    $0x20,%rsp
    5fe0:	48 89 7d e8          	mov    %rdi,-0x18(%rbp)
    5fe4:	48 8b 45 e8          	mov    -0x18(%rbp),%rax
    5fe8:	8b 40 08             	mov    0x8(%rax),%eax
    5feb:	89 45 fc             	mov    %eax,-0x4(%rbp)
    5fee:	48 8b 45 e8          	mov    -0x18(%rbp),%rax
    5ff2:	48 8b 00             	mov    (%rax),%rax
    5ff5:	48 85 c0             	test   %rax,%rax
    5ff8:	74 35                	je     602f <_ZNKSt19istreambuf_iteratorIcSt11char_traitsIcEE6_M_getEv+0x57>
    5ffa:	8b 45 fc             	mov    -0x4(%rbp),%eax
    5ffd:	89 c7                	mov    %eax,%edi
    5fff:	e8 5d 01 00 00       	call   6161 <_ZNSt19istreambuf_iteratorIcSt11char_traitsIcEE9_S_is_eofEi>
    6004:	84 c0                	test   %al,%al
    6006:	74 27                	je     602f <_ZNKSt19istreambuf_iteratorIcSt11char_traitsIcEE6_M_getEv+0x57>
    6008:	48 8b 45 e8          	mov    -0x18(%rbp),%rax
    600c:	48 8b 00             	mov    (%rax),%rax
    600f:	48 89 c7             	mov    %rax,%rdi
    6012:	e8 e9 d1 ff ff       	call   3200 <_ZNSt15basic_streambufIcSt11char_traitsIcEE5sgetcEv@plt>
    6017:	89 45 fc             	mov    %eax,-0x4(%rbp)
    601a:	8b 45 fc             	mov    -0x4(%rbp),%eax
    601d:	89 c7                	mov    %eax,%edi
    601f:	e8 3d 01 00 00       	call   6161 <_ZNSt19istreambuf_iteratorIcSt11char_traitsIcEE9_S_is_eofEi>
    6024:	84 c0                	test   %al,%al
    6026:	74 07                	je     602f <_ZNKSt19istreambuf_iteratorIcSt11char_traitsIcEE6_M_getEv+0x57>
    6028:	b8 01 00 00 00       	mov    $0x1,%eax
    602d:	eb 05                	jmp    6034 <_ZNKSt19istreambuf_iteratorIcSt11char_traitsIcEE6_M_getEv+0x5c>
    602f:	b8 00 00 00 00       	mov    $0x0,%eax
    6034:	84 c0                	test   %al,%al
    6036:	74 0b                	je     6043 <_ZNKSt19istreambuf_iteratorIcSt11char_traitsIcEE6_M_getEv+0x6b>
    6038:	48 8b 45 e8          	mov    -0x18(%rbp),%rax
    603c:	48 c7 00 00 00 00 00 	movq   $0x0,(%rax)
    6043:	8b 45 fc             	mov    -0x4(%rbp),%eax
    6046:	c9                   	leave
    6047:	c3                   	ret

0000000000006048 <_ZNSt6vectorIhSaIhEE9push_backEOh>:
    6048:	55                   	push   %rbp
    6049:	48 89 e5             	mov    %rsp,%rbp
    604c:	48 83 ec 20          	sub    $0x20,%rsp
    6050:	48 89 7d e8          	mov    %rdi,-0x18(%rbp)
    6054:	48 89 75 e0          	mov    %rsi,-0x20(%rbp)
    6058:	48 8b 45 e0          	mov    -0x20(%rbp),%rax
    605c:	48 89 45 f8          	mov    %rax,-0x8(%rbp)
    6060:	48 8b 55 f8          	mov    -0x8(%rbp),%rdx
    6064:	48 8b 45 e8          	mov    -0x18(%rbp),%rax
    6068:	48 89 d6             	mov    %rdx,%rsi
    606b:	48 89 c7             	mov    %rax,%rdi
    606e:	e8 39 01 00 00       	call   61ac <_ZNSt6vectorIhSaIhEE12emplace_backIJhEEERhDpOT_>
    6073:	90                   	nop
    6074:	c9                   	leave
    6075:	c3                   	ret

0000000000006076 <_ZNSt15__new_allocatorIhE10deallocateEPhm>:
    6076:	55                   	push   %rbp
    6077:	48 89 e5             	mov    %rsp,%rbp
    607a:	48 83 ec 20          	sub    $0x20,%rsp
    607e:	48 89 7d f8          	mov    %rdi,-0x8(%rbp)
    6082:	48 89 75 f0          	mov    %rsi,-0x10(%rbp)
    6086:	48 89 55 e8          	mov    %rdx,-0x18(%rbp)
    608a:	48 8b 55 e8          	mov    -0x18(%rbp),%rdx
    608e:	48 8b 45 f0          	mov    -0x10(%rbp),%rax
    6092:	48 89 d6             	mov    %rdx,%rsi
    6095:	48 89 c7             	mov    %rax,%rdi
    6098:	e8 03 d0 ff ff       	call   30a0 <_ZdlPvm@plt>
    609d:	c9                   	leave
    609e:	c3                   	ret
    609f:	90                   	nop

00000000000060a0 <_ZNSt15__new_allocatorIhE8allocateEmPKv>:
    60a0:	55                   	push   %rbp
    60a1:	48 89 e5             	mov    %rsp,%rbp
    60a4:	48 83 ec 30          	sub    $0x30,%rsp
    60a8:	48 89 7d e8          	mov    %rdi,-0x18(%rbp)
    60ac:	48 89 75 e0          	mov    %rsi,-0x20(%rbp)
    60b0:	48 89 55 d8          	mov    %rdx,-0x28(%rbp)
    60b4:	48 8b 45 e8          	mov    -0x18(%rbp),%rax
    60b8:	48 89 45 f8          	mov    %rax,-0x8(%rbp)
    60bc:	48 b8 ff ff ff ff ff 	movabs $0x7fffffffffffffff,%rax
    60c3:	ff ff 7f 
    60c6:	48 3b 45 e0          	cmp    -0x20(%rbp),%rax
    60ca:	0f 92 c0             	setb   %al
    60cd:	0f b6 c0             	movzbl %al,%eax
    60d0:	48 85 c0             	test   %rax,%rax
    60d3:	0f 95 c0             	setne  %al
    60d6:	84 c0                	test   %al,%al
    60d8:	74 05                	je     60df <_ZNSt15__new_allocatorIhE8allocateEmPKv+0x3f>
    60da:	e8 b1 cf ff ff       	call   3090 <_ZSt17__throw_bad_allocv@plt>
    60df:	48 8b 45 e0          	mov    -0x20(%rbp),%rax
    60e3:	48 89 c7             	mov    %rax,%rdi
    60e6:	e8 05 d0 ff ff       	call   30f0 <_Znwm@plt>
    60eb:	90                   	nop
    60ec:	c9                   	leave
    60ed:	c3                   	ret

00000000000060ee <_ZSt14__relocate_a_1IhhENSt9enable_ifIXsrSt24__is_bitwise_relocatableIT_vE5valueEPS2_E4typeES4_S4_S4_RSaIT0_E>:
    60ee:	55                   	push   %rbp
    60ef:	48 89 e5             	mov    %rsp,%rbp
    60f2:	48 83 ec 30          	sub    $0x30,%rsp
    60f6:	48 89 7d e8          	mov    %rdi,-0x18(%rbp)
    60fa:	48 89 75 e0          	mov    %rsi,-0x20(%rbp)
    60fe:	48 89 55 d8          	mov    %rdx,-0x28(%rbp)
    6102:	48 89 4d d0          	mov    %rcx,-0x30(%rbp)
    6106:	48 8b 45 e0          	mov    -0x20(%rbp),%rax
    610a:	48 2b 45 e8          	sub    -0x18(%rbp),%rax
    610e:	48 89 45 f8          	mov    %rax,-0x8(%rbp)
    6112:	48 83 7d f8 00       	cmpq   $0x0,-0x8(%rbp)
    6117:	7e 1a                	jle    6133 <_ZSt14__relocate_a_1IhhENSt9enable_ifIXsrSt24__is_bitwise_relocatableIT_vE5valueEPS2_E4typeES4_S4_S4_RSaIT0_E+0x45>
    6119:	48 8b 45 f8          	mov    -0x8(%rbp),%rax
    611d:	48 8b 4d d8          	mov    -0x28(%rbp),%rcx
    6121:	48 8b 55 e8          	mov    -0x18(%rbp),%rdx
    6125:	48 89 d6             	mov    %rdx,%rsi
    6128:	48 89 c2             	mov    %rax,%rdx
    612b:	48 89 cf             	mov    %rcx,%rdi
    612e:	e8 4d cf ff ff       	call   3080 <memcpy@plt>
    6133:	48 8b 55 f8          	mov    -0x8(%rbp),%rdx
    6137:	48 8b 45 d8          	mov    -0x28(%rbp),%rax
    613b:	48 01 d0             	add    %rdx,%rax
    613e:	c9                   	leave
    613f:	c3                   	ret

0000000000006140 <_ZNKSt19istreambuf_iteratorIcSt11char_traitsIcEE9_M_at_eofEv>:
    6140:	55                   	push   %rbp
    6141:	48 89 e5             	mov    %rsp,%rbp
    6144:	48 83 ec 10          	sub    $0x10,%rsp
    6148:	48 89 7d f8          	mov    %rdi,-0x8(%rbp)
    614c:	48 8b 45 f8          	mov    -0x8(%rbp),%rax
    6150:	48 89 c7             	mov    %rax,%rdi
    6153:	e8 80 fe ff ff       	call   5fd8 <_ZNKSt19istreambuf_iteratorIcSt11char_traitsIcEE6_M_getEv>
    6158:	89 c7                	mov    %eax,%edi
    615a:	e8 02 00 00 00       	call   6161 <_ZNSt19istreambuf_iteratorIcSt11char_traitsIcEE9_S_is_eofEi>
    615f:	c9                   	leave
    6160:	c3                   	ret

0000000000006161 <_ZNSt19istreambuf_iteratorIcSt11char_traitsIcEE9_S_is_eofEi>:
    6161:	55                   	push   %rbp
    6162:	48 89 e5             	mov    %rsp,%rbp
    6165:	48 83 ec 20          	sub    $0x20,%rsp
    6169:	89 7d ec             	mov    %edi,-0x14(%rbp)
    616c:	64 48 8b 04 25 28 00 	mov    %fs:0x28,%rax
    6173:	00 00 
    6175:	48 89 45 f8          	mov    %rax,-0x8(%rbp)
    6179:	31 c0                	xor    %eax,%eax
    617b:	c7 45 f4 ff ff ff ff 	movl   $0xffffffff,-0xc(%rbp)
    6182:	48 8d 55 f4          	lea    -0xc(%rbp),%rdx
    6186:	48 8d 45 ec          	lea    -0x14(%rbp),%rax
    618a:	48 89 d6             	mov    %rdx,%rsi
    618d:	48 89 c7             	mov    %rax,%rdi
    6190:	e8 69 f6 ff ff       	call   57fe <_ZNSt11char_traitsIcE11eq_int_typeERKiS2_>
    6195:	48 8b 55 f8          	mov    -0x8(%rbp),%rdx
    6199:	64 48 2b 14 25 28 00 	sub    %fs:0x28,%rdx
    61a0:	00 00 
    61a2:	74 05                	je     61a9 <_ZNSt19istreambuf_iteratorIcSt11char_traitsIcEE9_S_is_eofEi+0x48>
    61a4:	e8 b7 cf ff ff       	call   3160 <__stack_chk_fail@plt>
    61a9:	c9                   	leave
    61aa:	c3                   	ret
    61ab:	90                   	nop

00000000000061ac <_ZNSt6vectorIhSaIhEE12emplace_backIJhEEERhDpOT_>:
    61ac:	55                   	push   %rbp
    61ad:	48 89 e5             	mov    %rsp,%rbp
    61b0:	53                   	push   %rbx
    61b1:	48 83 ec 68          	sub    $0x68,%rsp
    61b5:	48 89 7d 98          	mov    %rdi,-0x68(%rbp)
    61b9:	48 89 75 90          	mov    %rsi,-0x70(%rbp)
    61bd:	48 8b 45 98          	mov    -0x68(%rbp),%rax
    61c1:	48 8b 50 08          	mov    0x8(%rax),%rdx
    61c5:	48 8b 45 98          	mov    -0x68(%rbp),%rax
    61c9:	48 8b 40 10          	mov    0x10(%rax),%rax
    61cd:	48 39 c2             	cmp    %rax,%rdx
    61d0:	0f 84 92 00 00 00    	je     6268 <_ZNSt6vectorIhSaIhEE12emplace_backIJhEEERhDpOT_+0xbc>
    61d6:	48 8b 45 90          	mov    -0x70(%rbp),%rax
    61da:	48 89 45 e0          	mov    %rax,-0x20(%rbp)
    61de:	48 8b 45 e0          	mov    -0x20(%rbp),%rax
    61e2:	48 8b 55 98          	mov    -0x68(%rbp),%rdx
    61e6:	48 8b 52 08          	mov    0x8(%rdx),%rdx
    61ea:	48 8b 4d 98          	mov    -0x68(%rbp),%rcx
    61ee:	48 89 4d a0          	mov    %rcx,-0x60(%rbp)
    61f2:	48 89 55 a8          	mov    %rdx,-0x58(%rbp)
    61f6:	48 89 45 b0          	mov    %rax,-0x50(%rbp)
    61fa:	48 8b 45 b0          	mov    -0x50(%rbp),%rax
    61fe:	48 89 45 b8          	mov    %rax,-0x48(%rbp)
    6202:	48 8b 45 b8          	mov    -0x48(%rbp),%rax
    6206:	48 8b 55 a8          	mov    -0x58(%rbp),%rdx
    620a:	48 89 55 c0          	mov    %rdx,-0x40(%rbp)
    620e:	48 89 45 c8          	mov    %rax,-0x38(%rbp)
    6212:	48 8b 45 a0          	mov    -0x60(%rbp),%rax
    6216:	48 89 45 d0          	mov    %rax,-0x30(%rbp)
    621a:	48 8b 5d c0          	mov    -0x40(%rbp),%rbx
    621e:	48 89 de             	mov    %rbx,%rsi
    6221:	bf 01 00 00 00       	mov    $0x1,%edi
    6226:	e8 fd f5 ff ff       	call   5828 <_ZnwmPv>
    622b:	48 8b 55 c8          	mov    -0x38(%rbp),%rdx
    622f:	48 89 55 d8          	mov    %rdx,-0x28(%rbp)
    6233:	48 8b 55 d8          	mov    -0x28(%rbp),%rdx
    6237:	0f b6 12             	movzbl (%rdx),%edx
    623a:	88 10                	mov    %dl,(%rax)
    623c:	ba 00 00 00 00       	mov    $0x0,%edx
    6241:	84 d2                	test   %dl,%dl
    6243:	74 0b                	je     6250 <_ZNSt6vectorIhSaIhEE12emplace_backIJhEEERhDpOT_+0xa4>
    6245:	48 89 de             	mov    %rbx,%rsi
    6248:	48 89 c7             	mov    %rax,%rdi
    624b:	e8 ea f5 ff ff       	call   583a <_ZdlPvS_>
    6250:	90                   	nop
    6251:	90                   	nop
    6252:	48 8b 45 98          	mov    -0x68(%rbp),%rax
    6256:	48 8b 40 08          	mov    0x8(%rax),%rax
    625a:	48 8d 50 01          	lea    0x1(%rax),%rdx
    625e:	48 8b 45 98          	mov    -0x68(%rbp),%rax
    6262:	48 89 50 08          	mov    %rdx,0x8(%rax)
    6266:	eb 1b                	jmp    6283 <_ZNSt6vectorIhSaIhEE12emplace_backIJhEEERhDpOT_+0xd7>
    6268:	48 8b 45 90          	mov    -0x70(%rbp),%rax
    626c:	48 89 45 e8          	mov    %rax,-0x18(%rbp)
    6270:	48 8b 55 e8          	mov    -0x18(%rbp),%rdx
    6274:	48 8b 45 98          	mov    -0x68(%rbp),%rax
    6278:	48 89 d6             	mov    %rdx,%rsi
    627b:	48 89 c7             	mov    %rax,%rdi
    627e:	e8 13 00 00 00       	call   6296 <_ZNSt6vectorIhSaIhEE17_M_realloc_appendIJhEEEvDpOT_>
    6283:	48 8b 45 98          	mov    -0x68(%rbp),%rax
    6287:	48 89 c7             	mov    %rax,%rdi
    628a:	e8 85 02 00 00       	call   6514 <_ZNSt6vectorIhSaIhEE4backEv>
    628f:	48 8b 5d f8          	mov    -0x8(%rbp),%rbx
    6293:	c9                   	leave
    6294:	c3                   	ret
    6295:	90                   	nop

0000000000006296 <_ZNSt6vectorIhSaIhEE17_M_realloc_appendIJhEEEvDpOT_>:
    6296:	55                   	push   %rbp
    6297:	48 89 e5             	mov    %rsp,%rbp
    629a:	53                   	push   %rbx
    629b:	48 81 ec d8 00 00 00 	sub    $0xd8,%rsp
    62a2:	48 89 bd 28 ff ff ff 	mov    %rdi,-0xd8(%rbp)
    62a9:	48 89 b5 20 ff ff ff 	mov    %rsi,-0xe0(%rbp)
    62b0:	64 48 8b 04 25 28 00 	mov    %fs:0x28,%rax
    62b7:	00 00 
    62b9:	48 89 45 e8          	mov    %rax,-0x18(%rbp)
    62bd:	31 c0                	xor    %eax,%eax
    62bf:	48 8d 15 1a 30 00 00 	lea    0x301a(%rip),%rdx        # 92e0 <_IO_stdin_used+0x2e0>
    62c6:	48 8b 85 28 ff ff ff 	mov    -0xd8(%rbp),%rax
    62cd:	be 01 00 00 00       	mov    $0x1,%esi
    62d2:	48 89 c7             	mov    %rax,%rdi
    62d5:	e8 e6 02 00 00       	call   65c0 <_ZNKSt6vectorIhSaIhEE12_M_check_lenEmPKc>
    62da:	48 89 85 40 ff ff ff 	mov    %rax,-0xc0(%rbp)
    62e1:	48 83 bd 40 ff ff ff 	cmpq   $0x0,-0xc0(%rbp)
    62e8:	00 
    62e9:	48 8b 85 28 ff ff ff 	mov    -0xd8(%rbp),%rax
    62f0:	48 8b 00             	mov    (%rax),%rax
    62f3:	48 89 85 48 ff ff ff 	mov    %rax,-0xb8(%rbp)
    62fa:	48 8b 85 28 ff ff ff 	mov    -0xd8(%rbp),%rax
    6301:	48 8b 40 08          	mov    0x8(%rax),%rax
    6305:	48 89 85 50 ff ff ff 	mov    %rax,-0xb0(%rbp)
    630c:	48 8b 85 28 ff ff ff 	mov    -0xd8(%rbp),%rax
    6313:	48 89 c7             	mov    %rax,%rdi
    6316:	e8 f3 03 00 00       	call   670e <_ZNSt6vectorIhSaIhEE5beginEv>
    631b:	48 89 45 d0          	mov    %rax,-0x30(%rbp)
    631f:	48 8b 85 28 ff ff ff 	mov    -0xd8(%rbp),%rax
    6326:	48 89 c7             	mov    %rax,%rdi
    6329:	e8 92 03 00 00       	call   66c0 <_ZNSt6vectorIhSaIhEE3endEv>
    632e:	48 89 85 38 ff ff ff 	mov    %rax,-0xc8(%rbp)
    6335:	48 8d 85 38 ff ff ff 	lea    -0xc8(%rbp),%rax
    633c:	48 89 45 c0          	mov    %rax,-0x40(%rbp)
    6340:	48 8b 45 c0          	mov    -0x40(%rbp),%rax
    6344:	48 8b 10             	mov    (%rax),%rdx
    6347:	48 8d 45 d0          	lea    -0x30(%rbp),%rax
    634b:	48 89 45 c8          	mov    %rax,-0x38(%rbp)
    634f:	48 8b 45 c8          	mov    -0x38(%rbp),%rax
    6353:	48 8b 00             	mov    (%rax),%rax
    6356:	48 29 c2             	sub    %rax,%rdx
    6359:	48 89 95 58 ff ff ff 	mov    %rdx,-0xa8(%rbp)
    6360:	48 8b 85 28 ff ff ff 	mov    -0xd8(%rbp),%rax
    6367:	48 8b 95 40 ff ff ff 	mov    -0xc0(%rbp),%rdx
    636e:	48 89 d6             	mov    %rdx,%rsi
    6371:	48 89 c7             	mov    %rax,%rdi
    6374:	e8 4d f9 ff ff       	call   5cc6 <_ZNSt12_Vector_baseIhSaIhEE11_M_allocateEm>
    6379:	48 89 85 60 ff ff ff 	mov    %rax,-0xa0(%rbp)
    6380:	48 8b 85 60 ff ff ff 	mov    -0xa0(%rbp),%rax
    6387:	48 89 85 68 ff ff ff 	mov    %rax,-0x98(%rbp)
    638e:	48 8b 8d 28 ff ff ff 	mov    -0xd8(%rbp),%rcx
    6395:	48 8b 95 40 ff ff ff 	mov    -0xc0(%rbp),%rdx
    639c:	48 8b b5 60 ff ff ff 	mov    -0xa0(%rbp),%rsi
    63a3:	48 8d 45 d0          	lea    -0x30(%rbp),%rax
    63a7:	48 89 c7             	mov    %rax,%rdi
    63aa:	e8 a9 03 00 00       	call   6758 <_ZNSt6vectorIhSaIhEE12_Guard_allocC1EPhmRSt12_Vector_baseIhS0_E>
    63af:	48 8b 85 20 ff ff ff 	mov    -0xe0(%rbp),%rax
    63b6:	48 89 45 b8          	mov    %rax,-0x48(%rbp)
    63ba:	48 8b 45 b8          	mov    -0x48(%rbp),%rax
    63be:	48 8b 8d 60 ff ff ff 	mov    -0xa0(%rbp),%rcx
    63c5:	48 8b 95 58 ff ff ff 	mov    -0xa8(%rbp),%rdx
    63cc:	48 01 ca             	add    %rcx,%rdx
    63cf:	48 89 55 b0          	mov    %rdx,-0x50(%rbp)
    63d3:	48 8b 55 b0          	mov    -0x50(%rbp),%rdx
    63d7:	48 8b 8d 28 ff ff ff 	mov    -0xd8(%rbp),%rcx
    63de:	48 89 8d 70 ff ff ff 	mov    %rcx,-0x90(%rbp)
    63e5:	48 89 95 78 ff ff ff 	mov    %rdx,-0x88(%rbp)
    63ec:	48 89 45 80          	mov    %rax,-0x80(%rbp)
    63f0:	48 8b 45 80          	mov    -0x80(%rbp),%rax
    63f4:	48 89 45 88          	mov    %rax,-0x78(%rbp)
    63f8:	48 8b 45 88          	mov    -0x78(%rbp),%rax
    63fc:	48 8b 95 78 ff ff ff 	mov    -0x88(%rbp),%rdx
    6403:	48 89 55 90          	mov    %rdx,-0x70(%rbp)
    6407:	48 89 45 98          	mov    %rax,-0x68(%rbp)
    640b:	48 8b 85 70 ff ff ff 	mov    -0x90(%rbp),%rax
    6412:	48 89 45 a0          	mov    %rax,-0x60(%rbp)
    6416:	48 8b 5d 90          	mov    -0x70(%rbp),%rbx
    641a:	48 89 de             	mov    %rbx,%rsi
    641d:	bf 01 00 00 00       	mov    $0x1,%edi
    6422:	e8 01 f4 ff ff       	call   5828 <_ZnwmPv>
    6427:	48 8b 55 98          	mov    -0x68(%rbp),%rdx
    642b:	48 89 55 a8          	mov    %rdx,-0x58(%rbp)
    642f:	48 8b 55 a8          	mov    -0x58(%rbp),%rdx
    6433:	0f b6 12             	movzbl (%rdx),%edx
    6436:	88 10                	mov    %dl,(%rax)
    6438:	ba 00 00 00 00       	mov    $0x0,%edx
    643d:	84 d2                	test   %dl,%dl
    643f:	74 0b                	je     644c <_ZNSt6vectorIhSaIhEE17_M_realloc_appendIJhEEEvDpOT_+0x1b6>
    6441:	48 89 de             	mov    %rbx,%rsi
    6444:	48 89 c7             	mov    %rax,%rdi
    6447:	e8 ee f3 ff ff       	call   583a <_ZdlPvS_>
    644c:	90                   	nop
    644d:	90                   	nop
    644e:	48 8b 85 28 ff ff ff 	mov    -0xd8(%rbp),%rax
    6455:	48 89 c7             	mov    %rax,%rdi
    6458:	e8 e5 f7 ff ff       	call   5c42 <_ZNSt12_Vector_baseIhSaIhEE19_M_get_Tp_allocatorEv>
    645d:	48 89 c1             	mov    %rax,%rcx
    6460:	48 8b 95 60 ff ff ff 	mov    -0xa0(%rbp),%rdx
    6467:	48 8b b5 50 ff ff ff 	mov    -0xb0(%rbp),%rsi
    646e:	48 8b 85 48 ff ff ff 	mov    -0xb8(%rbp),%rax
    6475:	48 89 c7             	mov    %rax,%rdi
    6478:	e8 92 f8 ff ff       	call   5d0f <_ZNSt6vectorIhSaIhEE11_S_relocateEPhS2_S2_RS0_>
    647d:	48 89 85 68 ff ff ff 	mov    %rax,-0x98(%rbp)
    6484:	48 83 85 68 ff ff ff 	addq   $0x1,-0x98(%rbp)
    648b:	01 
    648c:	48 8b 85 48 ff ff ff 	mov    -0xb8(%rbp),%rax
    6493:	48 89 45 d0          	mov    %rax,-0x30(%rbp)
    6497:	48 8b 85 28 ff ff ff 	mov    -0xd8(%rbp),%rax
    649e:	48 8b 40 10          	mov    0x10(%rax),%rax
    64a2:	48 2b 85 48 ff ff ff 	sub    -0xb8(%rbp),%rax
    64a9:	48 89 45 d8          	mov    %rax,-0x28(%rbp)
    64ad:	48 8d 45 d0          	lea    -0x30(%rbp),%rax
    64b1:	48 89 c7             	mov    %rax,%rdi
    64b4:	e8 d9 02 00 00       	call   6792 <_ZNSt6vectorIhSaIhEE12_Guard_allocD1Ev>
    64b9:	48 8b 85 28 ff ff ff 	mov    -0xd8(%rbp),%rax
    64c0:	48 8b 95 60 ff ff ff 	mov    -0xa0(%rbp),%rdx
    64c7:	48 89 10             	mov    %rdx,(%rax)
    64ca:	48 8b 85 28 ff ff ff 	mov    -0xd8(%rbp),%rax
    64d1:	48 8b 95 68 ff ff ff 	mov    -0x98(%rbp),%rdx
    64d8:	48 89 50 08          	mov    %rdx,0x8(%rax)
    64dc:	48 8b 95 60 ff ff ff 	mov    -0xa0(%rbp),%rdx
    64e3:	48 8b 85 40 ff ff ff 	mov    -0xc0(%rbp),%rax
    64ea:	48 01 c2             	add    %rax,%rdx
    64ed:	48 8b 85 28 ff ff ff 	mov    -0xd8(%rbp),%rax
    64f4:	48 89 50 10          	mov    %rdx,0x10(%rax)
    64f8:	90                   	nop
    64f9:	48 8b 45 e8          	mov    -0x18(%rbp),%rax
    64fd:	64 48 2b 04 25 28 00 	sub    %fs:0x28,%rax
    6504:	00 00 
    6506:	74 05                	je     650d <_ZNSt6vectorIhSaIhEE17_M_realloc_appendIJhEEEvDpOT_+0x277>
    6508:	e8 53 cc ff ff       	call   3160 <__stack_chk_fail@plt>
    650d:	48 8b 5d f8          	mov    -0x8(%rbp),%rbx
    6511:	c9                   	leave
    6512:	c3                   	ret
    6513:	90                   	nop

0000000000006514 <_ZNSt6vectorIhSaIhEE4backEv>:
    6514:	55                   	push   %rbp
    6515:	48 89 e5             	mov    %rsp,%rbp
    6518:	48 83 ec 40          	sub    $0x40,%rsp
    651c:	48 89 7d c8          	mov    %rdi,-0x38(%rbp)
    6520:	64 48 8b 04 25 28 00 	mov    %fs:0x28,%rax
    6527:	00 00 
    6529:	48 89 45 f8          	mov    %rax,-0x8(%rbp)
    652d:	31 c0                	xor    %eax,%eax
    652f:	48 8b 45 c8          	mov    -0x38(%rbp),%rax
    6533:	48 89 c7             	mov    %rax,%rdi
    6536:	e8 95 02 00 00       	call   67d0 <_ZNKSt6vectorIhSaIhEE5emptyEv>
    653b:	0f b6 c0             	movzbl %al,%eax
    653e:	48 85 c0             	test   %rax,%rax
    6541:	0f 95 c0             	setne  %al
    6544:	84 c0                	test   %al,%al
    6546:	74 22                	je     656a <_ZNSt6vectorIhSaIhEE4backEv+0x56>
    6548:	48 8d 0d ab 2d 00 00 	lea    0x2dab(%rip),%rcx        # 92fa <_IO_stdin_used+0x2fa>
    654f:	48 8d 15 ba 2d 00 00 	lea    0x2dba(%rip),%rdx        # 9310 <_IO_stdin_used+0x310>
    6556:	48 8d 05 5b 2e 00 00 	lea    0x2e5b(%rip),%rax        # 93b8 <_IO_stdin_used+0x3b8>
    655d:	be 5a 05 00 00       	mov    $0x55a,%esi
    6562:	48 89 c7             	mov    %rax,%rdi
    6565:	e8 b6 cb ff ff       	call   3120 <_ZSt21__glibcxx_assert_failPKciS0_S0_@plt>
    656a:	48 8b 45 c8          	mov    -0x38(%rbp),%rax
    656e:	48 89 c7             	mov    %rax,%rdi
    6571:	e8 4a 01 00 00       	call   66c0 <_ZNSt6vectorIhSaIhEE3endEv>
    6576:	48 89 45 d8          	mov    %rax,-0x28(%rbp)
    657a:	48 c7 45 f0 01 00 00 	movq   $0x1,-0x10(%rbp)
    6581:	00 
    6582:	48 8b 45 d8          	mov    -0x28(%rbp),%rax
    6586:	48 8b 55 f0          	mov    -0x10(%rbp),%rdx
    658a:	48 f7 da             	neg    %rdx
    658d:	48 01 d0             	add    %rdx,%rax
    6590:	48 89 45 e0          	mov    %rax,-0x20(%rbp)
    6594:	48 8b 45 e0          	mov    -0x20(%rbp),%rax
    6598:	48 89 45 e8          	mov    %rax,-0x18(%rbp)
    659c:	90                   	nop
    659d:	48 8b 45 e8          	mov    -0x18(%rbp),%rax
    65a1:	48 89 45 e8          	mov    %rax,-0x18(%rbp)
    65a5:	48 8b 45 e8          	mov    -0x18(%rbp),%rax
    65a9:	48 8b 55 f8          	mov    -0x8(%rbp),%rdx
    65ad:	64 48 2b 14 25 28 00 	sub    %fs:0x28,%rdx
    65b4:	00 00 
    65b6:	74 05                	je     65bd <_ZNSt6vectorIhSaIhEE4backEv+0xa9>
    65b8:	e8 a3 cb ff ff       	call   3160 <__stack_chk_fail@plt>
    65bd:	c9                   	leave
    65be:	c3                   	ret
    65bf:	90                   	nop

00000000000065c0 <_ZNKSt6vectorIhSaIhEE12_M_check_lenEmPKc>:
    65c0:	55                   	push   %rbp
    65c1:	48 89 e5             	mov    %rsp,%rbp
    65c4:	53                   	push   %rbx
    65c5:	48 83 ec 48          	sub    $0x48,%rsp
    65c9:	48 89 7d c8          	mov    %rdi,-0x38(%rbp)
    65cd:	48 89 75 c0          	mov    %rsi,-0x40(%rbp)
    65d1:	48 89 55 b8          	mov    %rdx,-0x48(%rbp)
    65d5:	64 48 8b 04 25 28 00 	mov    %fs:0x28,%rax
    65dc:	00 00 
    65de:	48 89 45 e8          	mov    %rax,-0x18(%rbp)
    65e2:	31 c0                	xor    %eax,%eax
    65e4:	48 8b 45 c8          	mov    -0x38(%rbp),%rax
    65e8:	48 89 c7             	mov    %rax,%rdi
    65eb:	e8 60 f6 ff ff       	call   5c50 <_ZNKSt6vectorIhSaIhEE8max_sizeEv>
    65f0:	48 89 c3             	mov    %rax,%rbx
    65f3:	48 8b 45 c8          	mov    -0x38(%rbp),%rax
    65f7:	48 89 c7             	mov    %rax,%rdi
    65fa:	e8 9d f6 ff ff       	call   5c9c <_ZNKSt6vectorIhSaIhEE4sizeEv>
    65ff:	48 29 c3             	sub    %rax,%rbx
    6602:	48 89 da             	mov    %rbx,%rdx
    6605:	48 8b 45 c0          	mov    -0x40(%rbp),%rax
    6609:	48 39 c2             	cmp    %rax,%rdx
    660c:	0f 92 c0             	setb   %al
    660f:	84 c0                	test   %al,%al
    6611:	74 20                	je     6633 <_ZNKSt6vectorIhSaIhEE12_M_check_lenEmPKc+0x73>
    6613:	48 8b 45 e8          	mov    -0x18(%rbp),%rax
    6617:	64 48 2b 04 25 28 00 	sub    %fs:0x28,%rax
    661e:	00 00 
    6620:	74 05                	je     6627 <_ZNKSt6vectorIhSaIhEE12_M_check_lenEmPKc+0x67>
    6622:	e8 39 cb ff ff       	call   3160 <__stack_chk_fail@plt>
    6627:	48 8b 45 b8          	mov    -0x48(%rbp),%rax
    662b:	48 89 c7             	mov    %rax,%rdi
    662e:	e8 3d cc ff ff       	call   3270 <_ZSt20__throw_length_errorPKc@plt>
    6633:	48 8b 45 c8          	mov    -0x38(%rbp),%rax
    6637:	48 89 c7             	mov    %rax,%rdi
    663a:	e8 5d f6 ff ff       	call   5c9c <_ZNKSt6vectorIhSaIhEE4sizeEv>
    663f:	48 89 c3             	mov    %rax,%rbx
    6642:	48 8b 45 c8          	mov    -0x38(%rbp),%rax
    6646:	48 89 c7             	mov    %rax,%rdi
    6649:	e8 4e f6 ff ff       	call   5c9c <_ZNKSt6vectorIhSaIhEE4sizeEv>
    664e:	48 89 45 d8          	mov    %rax,-0x28(%rbp)
    6652:	48 8d 55 c0          	lea    -0x40(%rbp),%rdx
    6656:	48 8d 45 d8          	lea    -0x28(%rbp),%rax
    665a:	48 89 d6             	mov    %rdx,%rsi
    665d:	48 89 c7             	mov    %rax,%rdi
    6660:	e8 e0 01 00 00       	call   6845 <_ZSt3maxImERKT_S2_S2_>
    6665:	48 8b 00             	mov    (%rax),%rax
    6668:	48 01 d8             	add    %rbx,%rax
    666b:	48 89 45 e0          	mov    %rax,-0x20(%rbp)
    666f:	48 8b 45 c8          	mov    -0x38(%rbp),%rax
    6673:	48 89 c7             	mov    %rax,%rdi
    6676:	e8 21 f6 ff ff       	call   5c9c <_ZNKSt6vectorIhSaIhEE4sizeEv>
    667b:	48 39 45 e0          	cmp    %rax,-0x20(%rbp)
    667f:	72 12                	jb     6693 <_ZNKSt6vectorIhSaIhEE12_M_check_lenEmPKc+0xd3>
    6681:	48 8b 45 c8          	mov    -0x38(%rbp),%rax
    6685:	48 89 c7             	mov    %rax,%rdi
    6688:	e8 c3 f5 ff ff       	call   5c50 <_ZNKSt6vectorIhSaIhEE8max_sizeEv>
    668d:	48 3b 45 e0          	cmp    -0x20(%rbp),%rax
    6691:	73 0e                	jae    66a1 <_ZNKSt6vectorIhSaIhEE12_M_check_lenEmPKc+0xe1>
    6693:	48 8b 45 c8          	mov    -0x38(%rbp),%rax
    6697:	48 89 c7             	mov    %rax,%rdi
    669a:	e8 b1 f5 ff ff       	call   5c50 <_ZNKSt6vectorIhSaIhEE8max_sizeEv>
    669f:	eb 04                	jmp    66a5 <_ZNKSt6vectorIhSaIhEE12_M_check_lenEmPKc+0xe5>
    66a1:	48 8b 45 e0          	mov    -0x20(%rbp),%rax
    66a5:	48 8b 55 e8          	mov    -0x18(%rbp),%rdx
    66a9:	64 48 2b 14 25 28 00 	sub    %fs:0x28,%rdx
    66b0:	00 00 
    66b2:	74 05                	je     66b9 <_ZNKSt6vectorIhSaIhEE12_M_check_lenEmPKc+0xf9>
    66b4:	e8 a7 ca ff ff       	call   3160 <__stack_chk_fail@plt>
    66b9:	48 8b 5d f8          	mov    -0x8(%rbp),%rbx
    66bd:	c9                   	leave
    66be:	c3                   	ret
    66bf:	90                   	nop

00000000000066c0 <_ZNSt6vectorIhSaIhEE3endEv>:
    66c0:	55                   	push   %rbp
    66c1:	48 89 e5             	mov    %rsp,%rbp
    66c4:	48 83 ec 30          	sub    $0x30,%rsp
    66c8:	48 89 7d d8          	mov    %rdi,-0x28(%rbp)
    66cc:	64 48 8b 04 25 28 00 	mov    %fs:0x28,%rax
    66d3:	00 00 
    66d5:	48 89 45 f8          	mov    %rax,-0x8(%rbp)
    66d9:	31 c0                	xor    %eax,%eax
    66db:	48 8b 45 d8          	mov    -0x28(%rbp),%rax
    66df:	48 83 c0 08          	add    $0x8,%rax
    66e3:	48 89 45 f0          	mov    %rax,-0x10(%rbp)
    66e7:	48 8b 45 f0          	mov    -0x10(%rbp),%rax
    66eb:	48 8b 00             	mov    (%rax),%rax
    66ee:	48 89 45 e8          	mov    %rax,-0x18(%rbp)
    66f2:	90                   	nop
    66f3:	48 8b 45 e8          	mov    -0x18(%rbp),%rax
    66f7:	48 8b 55 f8          	mov    -0x8(%rbp),%rdx
    66fb:	64 48 2b 14 25 28 00 	sub    %fs:0x28,%rdx
    6702:	00 00 
    6704:	74 05                	je     670b <_ZNSt6vectorIhSaIhEE3endEv+0x4b>
    6706:	e8 55 ca ff ff       	call   3160 <__stack_chk_fail@plt>
    670b:	c9                   	leave
    670c:	c3                   	ret
    670d:	90                   	nop

000000000000670e <_ZNSt6vectorIhSaIhEE5beginEv>:
    670e:	55                   	push   %rbp
    670f:	48 89 e5             	mov    %rsp,%rbp
    6712:	48 83 ec 30          	sub    $0x30,%rsp
    6716:	48 89 7d d8          	mov    %rdi,-0x28(%rbp)
    671a:	64 48 8b 04 25 28 00 	mov    %fs:0x28,%rax
    6721:	00 00 
    6723:	48 89 45 f8          	mov    %rax,-0x8(%rbp)
    6727:	31 c0                	xor    %eax,%eax
    6729:	48 8b 45 d8          	mov    -0x28(%rbp),%rax
    672d:	48 89 45 f0          	mov    %rax,-0x10(%rbp)
    6731:	48 8b 45 f0          	mov    -0x10(%rbp),%rax
    6735:	48 8b 00             	mov    (%rax),%rax
    6738:	48 89 45 e8          	mov    %rax,-0x18(%rbp)
    673c:	90                   	nop
    673d:	48 8b 45 e8          	mov    -0x18(%rbp),%rax
    6741:	48 8b 55 f8          	mov    -0x8(%rbp),%rdx
    6745:	64 48 2b 14 25 28 00 	sub    %fs:0x28,%rdx
    674c:	00 00 
    674e:	74 05                	je     6755 <_ZNSt6vectorIhSaIhEE5beginEv+0x47>
    6750:	e8 0b ca ff ff       	call   3160 <__stack_chk_fail@plt>
    6755:	c9                   	leave
    6756:	c3                   	ret
    6757:	90                   	nop

0000000000006758 <_ZNSt6vectorIhSaIhEE12_Guard_allocC1EPhmRSt12_Vector_baseIhS0_E>:
    6758:	55                   	push   %rbp
    6759:	48 89 e5             	mov    %rsp,%rbp
    675c:	48 89 7d f8          	mov    %rdi,-0x8(%rbp)
    6760:	48 89 75 f0          	mov    %rsi,-0x10(%rbp)
    6764:	48 89 55 e8          	mov    %rdx,-0x18(%rbp)
    6768:	48 89 4d e0          	mov    %rcx,-0x20(%rbp)
    676c:	48 8b 45 f8          	mov    -0x8(%rbp),%rax
    6770:	48 8b 55 f0          	mov    -0x10(%rbp),%rdx
    6774:	48 89 10             	mov    %rdx,(%rax)
    6777:	48 8b 45 f8          	mov    -0x8(%rbp),%rax
    677b:	48 8b 55 e8          	mov    -0x18(%rbp),%rdx
    677f:	48 89 50 08          	mov    %rdx,0x8(%rax)
    6783:	48 8b 45 f8          	mov    -0x8(%rbp),%rax
    6787:	48 8b 55 e0          	mov    -0x20(%rbp),%rdx
    678b:	48 89 50 10          	mov    %rdx,0x10(%rax)
    678f:	90                   	nop
    6790:	5d                   	pop    %rbp
    6791:	c3                   	ret

0000000000006792 <_ZNSt6vectorIhSaIhEE12_Guard_allocD1Ev>:
    6792:	55                   	push   %rbp
    6793:	48 89 e5             	mov    %rsp,%rbp
    6796:	48 83 ec 10          	sub    $0x10,%rsp
    679a:	48 89 7d f8          	mov    %rdi,-0x8(%rbp)
    679e:	48 8b 45 f8          	mov    -0x8(%rbp),%rax
    67a2:	48 8b 00             	mov    (%rax),%rax
    67a5:	48 85 c0             	test   %rax,%rax
    67a8:	74 22                	je     67cc <_ZNSt6vectorIhSaIhEE12_Guard_allocD1Ev+0x3a>
    67aa:	48 8b 45 f8          	mov    -0x8(%rbp),%rax
    67ae:	48 8b 40 10          	mov    0x10(%rax),%rax
    67b2:	48 8b 55 f8          	mov    -0x8(%rbp),%rdx
    67b6:	48 8b 52 08          	mov    0x8(%rdx),%rdx
    67ba:	48 8b 4d f8          	mov    -0x8(%rbp),%rcx
    67be:	48 8b 09             	mov    (%rcx),%rcx
    67c1:	48 89 ce             	mov    %rcx,%rsi
    67c4:	48 89 c7             	mov    %rax,%rdi
    67c7:	e8 28 f4 ff ff       	call   5bf4 <_ZNSt12_Vector_baseIhSaIhEE13_M_deallocateEPhm>
    67cc:	90                   	nop
    67cd:	c9                   	leave
    67ce:	c3                   	ret
    67cf:	90                   	nop

00000000000067d0 <_ZNKSt6vectorIhSaIhEE5emptyEv>:
    67d0:	55                   	push   %rbp
    67d1:	48 89 e5             	mov    %rsp,%rbp
    67d4:	48 83 ec 40          	sub    $0x40,%rsp
    67d8:	48 89 7d c8          	mov    %rdi,-0x38(%rbp)
    67dc:	64 48 8b 04 25 28 00 	mov    %fs:0x28,%rax
    67e3:	00 00 
    67e5:	48 89 45 f8          	mov    %rax,-0x8(%rbp)
    67e9:	31 c0                	xor    %eax,%eax
    67eb:	48 8b 45 c8          	mov    -0x38(%rbp),%rax
    67ef:	48 89 c7             	mov    %rax,%rdi
    67f2:	e8 c3 00 00 00       	call   68ba <_ZNKSt6vectorIhSaIhEE3endEv>
    67f7:	48 89 45 e0          	mov    %rax,-0x20(%rbp)
    67fb:	48 8b 45 c8          	mov    -0x38(%rbp),%rax
    67ff:	48 89 c7             	mov    %rax,%rdi
    6802:	e8 69 00 00 00       	call   6870 <_ZNKSt6vectorIhSaIhEE5beginEv>
    6807:	48 89 45 d8          	mov    %rax,-0x28(%rbp)
    680b:	48 8d 45 d8          	lea    -0x28(%rbp),%rax
    680f:	48 89 45 e8          	mov    %rax,-0x18(%rbp)
    6813:	48 8b 45 e8          	mov    -0x18(%rbp),%rax
    6817:	48 8b 10             	mov    (%rax),%rdx
    681a:	48 8d 45 e0          	lea    -0x20(%rbp),%rax
    681e:	48 89 45 f0          	mov    %rax,-0x10(%rbp)
    6822:	48 8b 45 f0          	mov    -0x10(%rbp),%rax
    6826:	48 8b 00             	mov    (%rax),%rax
    6829:	48 39 c2             	cmp    %rax,%rdx
    682c:	0f 94 c0             	sete   %al
    682f:	48 8b 55 f8          	mov    -0x8(%rbp),%rdx
    6833:	64 48 2b 14 25 28 00 	sub    %fs:0x28,%rdx
    683a:	00 00 
    683c:	74 05                	je     6843 <_ZNKSt6vectorIhSaIhEE5emptyEv+0x73>
    683e:	e8 1d c9 ff ff       	call   3160 <__stack_chk_fail@plt>
    6843:	c9                   	leave
    6844:	c3                   	ret

0000000000006845 <_ZSt3maxImERKT_S2_S2_>:
    6845:	55                   	push   %rbp
    6846:	48 89 e5             	mov    %rsp,%rbp
    6849:	48 89 7d f8          	mov    %rdi,-0x8(%rbp)
    684d:	48 89 75 f0          	mov    %rsi,-0x10(%rbp)
    6851:	48 8b 45 f8          	mov    -0x8(%rbp),%rax
    6855:	48 8b 10             	mov    (%rax),%rdx
    6858:	48 8b 45 f0          	mov    -0x10(%rbp),%rax
    685c:	48 8b 00             	mov    (%rax),%rax
    685f:	48 39 c2             	cmp    %rax,%rdx
    6862:	73 06                	jae    686a <_ZSt3maxImERKT_S2_S2_+0x25>
    6864:	48 8b 45 f0          	mov    -0x10(%rbp),%rax
    6868:	eb 04                	jmp    686e <_ZSt3maxImERKT_S2_S2_+0x29>
    686a:	48 8b 45 f8          	mov    -0x8(%rbp),%rax
    686e:	5d                   	pop    %rbp
    686f:	c3                   	ret

0000000000006870 <_ZNKSt6vectorIhSaIhEE5beginEv>:
    6870:	55                   	push   %rbp
    6871:	48 89 e5             	mov    %rsp,%rbp
    6874:	48 83 ec 30          	sub    $0x30,%rsp
    6878:	48 89 7d d8          	mov    %rdi,-0x28(%rbp)
    687c:	64 48 8b 04 25 28 00 	mov    %fs:0x28,%rax
    6883:	00 00 
    6885:	48 89 45 f8          	mov    %rax,-0x8(%rbp)
    6889:	31 c0                	xor    %eax,%eax
    688b:	48 8b 45 d8          	mov    -0x28(%rbp),%rax
    688f:	48 89 45 f0          	mov    %rax,-0x10(%rbp)
    6893:	48 8b 45 f0          	mov    -0x10(%rbp),%rax
    6897:	48 8b 00             	mov    (%rax),%rax
    689a:	48 89 45 e8          	mov    %rax,-0x18(%rbp)
    689e:	90                   	nop
    689f:	48 8b 45 e8          	mov    -0x18(%rbp),%rax
    68a3:	48 8b 55 f8          	mov    -0x8(%rbp),%rdx
    68a7:	64 48 2b 14 25 28 00 	sub    %fs:0x28,%rdx
    68ae:	00 00 
    68b0:	74 05                	je     68b7 <_ZNKSt6vectorIhSaIhEE5beginEv+0x47>
    68b2:	e8 a9 c8 ff ff       	call   3160 <__stack_chk_fail@plt>
    68b7:	c9                   	leave
    68b8:	c3                   	ret
    68b9:	90                   	nop

00000000000068ba <_ZNKSt6vectorIhSaIhEE3endEv>:
    68ba:	55                   	push   %rbp
    68bb:	48 89 e5             	mov    %rsp,%rbp
    68be:	48 83 ec 30          	sub    $0x30,%rsp
    68c2:	48 89 7d d8          	mov    %rdi,-0x28(%rbp)
    68c6:	64 48 8b 04 25 28 00 	mov    %fs:0x28,%rax
    68cd:	00 00 
    68cf:	48 89 45 f8          	mov    %rax,-0x8(%rbp)
    68d3:	31 c0                	xor    %eax,%eax
    68d5:	48 8b 45 d8          	mov    -0x28(%rbp),%rax
    68d9:	48 83 c0 08          	add    $0x8,%rax
    68dd:	48 89 45 f0          	mov    %rax,-0x10(%rbp)
    68e1:	48 8b 45 f0          	mov    -0x10(%rbp),%rax
    68e5:	48 8b 00             	mov    (%rax),%rax
    68e8:	48 89 45 e8          	mov    %rax,-0x18(%rbp)
    68ec:	90                   	nop
    68ed:	48 8b 45 e8          	mov    -0x18(%rbp),%rax
    68f1:	48 8b 55 f8          	mov    -0x8(%rbp),%rdx
    68f5:	64 48 2b 14 25 28 00 	sub    %fs:0x28,%rdx
    68fc:	00 00 
    68fe:	74 05                	je     6905 <_ZNKSt6vectorIhSaIhEE3endEv+0x4b>
    6900:	e8 5b c8 ff ff       	call   3160 <__stack_chk_fail@plt>
    6905:	c9                   	leave
    6906:	c3                   	ret

0000000000006907 <_Z13hashFromBytesB5cxx11RKSt6vectorIhSaIhEE>:
    6907:	55                   	push   %rbp
    6908:	48 89 e5             	mov    %rsp,%rbp
    690b:	53                   	push   %rbx
    690c:	48 81 ec f8 01 00 00 	sub    $0x1f8,%rsp
    6913:	48 89 bd 08 fe ff ff 	mov    %rdi,-0x1f8(%rbp)
    691a:	48 89 b5 00 fe ff ff 	mov    %rsi,-0x200(%rbp)
    6921:	64 48 8b 04 25 28 00 	mov    %fs:0x28,%rax
    6928:	00 00 
    692a:	48 89 45 e8          	mov    %rax,-0x18(%rbp)
    692e:	31 c0                	xor    %eax,%eax
    6930:	c7 85 10 fe ff ff 00 	movl   $0x0,-0x1f0(%rbp)
    6937:	00 00 00 
    693a:	e8 c1 c7 ff ff       	call   3100 <EVP_MD_CTX_new@plt>
    693f:	48 89 85 18 fe ff ff 	mov    %rax,-0x1e8(%rbp)
    6946:	48 83 bd 18 fe ff ff 	cmpq   $0x0,-0x1e8(%rbp)
    694d:	00 
    694e:	75 14                	jne    6964 <_Z13hashFromBytesB5cxx11RKSt6vectorIhSaIhEE+0x5d>
    6950:	48 8b 85 08 fe ff ff 	mov    -0x1f8(%rbp),%rax
    6957:	48 89 c7             	mov    %rax,%rdi
    695a:	e8 21 04 00 00       	call   6d80 <_ZNSt7__cxx1112basic_stringIcSt11char_traitsIcESaIcEEC1Ev>
    695f:	e9 1a 02 00 00       	jmp    6b7e <_Z13hashFromBytesB5cxx11RKSt6vectorIhSaIhEE+0x277>
    6964:	e8 f7 c6 ff ff       	call   3060 <EVP_sha256@plt>
    6969:	48 89 c1             	mov    %rax,%rcx
    696c:	48 8b 85 18 fe ff ff 	mov    -0x1e8(%rbp),%rax
    6973:	ba 00 00 00 00       	mov    $0x0,%edx
    6978:	48 89 ce             	mov    %rcx,%rsi
    697b:	48 89 c7             	mov    %rax,%rdi
    697e:	e8 9d c9 ff ff       	call   3320 <EVP_DigestInit_ex@plt>
    6983:	83 f8 01             	cmp    $0x1,%eax
    6986:	0f 95 c0             	setne  %al
    6989:	84 c0                	test   %al,%al
    698b:	74 23                	je     69b0 <_Z13hashFromBytesB5cxx11RKSt6vectorIhSaIhEE+0xa9>
    698d:	48 8b 85 18 fe ff ff 	mov    -0x1e8(%rbp),%rax
    6994:	48 89 c7             	mov    %rax,%rdi
    6997:	e8 94 c8 ff ff       	call   3230 <EVP_MD_CTX_free@plt>
    699c:	48 8b 85 08 fe ff ff 	mov    -0x1f8(%rbp),%rax
    69a3:	48 89 c7             	mov    %rax,%rdi
    69a6:	e8 d5 03 00 00       	call   6d80 <_ZNSt7__cxx1112basic_stringIcSt11char_traitsIcESaIcEEC1Ev>
    69ab:	e9 ce 01 00 00       	jmp    6b7e <_Z13hashFromBytesB5cxx11RKSt6vectorIhSaIhEE+0x277>
    69b0:	48 8b 85 00 fe ff ff 	mov    -0x200(%rbp),%rax
    69b7:	48 89 c7             	mov    %rax,%rdi
    69ba:	e8 11 fe ff ff       	call   67d0 <_ZNKSt6vectorIhSaIhEE5emptyEv>
    69bf:	83 f0 01             	xor    $0x1,%eax
    69c2:	84 c0                	test   %al,%al
    69c4:	74 45                	je     6a0b <_Z13hashFromBytesB5cxx11RKSt6vectorIhSaIhEE+0x104>
    69c6:	48 8b 85 00 fe ff ff 	mov    -0x200(%rbp),%rax
    69cd:	48 89 c7             	mov    %rax,%rdi
    69d0:	e8 c7 f2 ff ff       	call   5c9c <_ZNKSt6vectorIhSaIhEE4sizeEv>
    69d5:	48 89 c3             	mov    %rax,%rbx
    69d8:	48 8b 85 00 fe ff ff 	mov    -0x200(%rbp),%rax
    69df:	48 89 c7             	mov    %rax,%rdi
    69e2:	e8 27 04 00 00       	call   6e0e <_ZNKSt6vectorIhSaIhEE4dataEv>
    69e7:	48 89 c1             	mov    %rax,%rcx
    69ea:	48 8b 85 18 fe ff ff 	mov    -0x1e8(%rbp),%rax
    69f1:	48 89 da             	mov    %rbx,%rdx
    69f4:	48 89 ce             	mov    %rcx,%rsi
    69f7:	48 89 c7             	mov    %rax,%rdi
    69fa:	e8 d1 c6 ff ff       	call   30d0 <EVP_DigestUpdate@plt>
    69ff:	83 f8 01             	cmp    $0x1,%eax
    6a02:	74 07                	je     6a0b <_Z13hashFromBytesB5cxx11RKSt6vectorIhSaIhEE+0x104>
    6a04:	b8 01 00 00 00       	mov    $0x1,%eax
    6a09:	eb 05                	jmp    6a10 <_Z13hashFromBytesB5cxx11RKSt6vectorIhSaIhEE+0x109>
    6a0b:	b8 00 00 00 00       	mov    $0x0,%eax
    6a10:	84 c0                	test   %al,%al
    6a12:	74 23                	je     6a37 <_Z13hashFromBytesB5cxx11RKSt6vectorIhSaIhEE+0x130>
    6a14:	48 8b 85 18 fe ff ff 	mov    -0x1e8(%rbp),%rax
    6a1b:	48 89 c7             	mov    %rax,%rdi
    6a1e:	e8 0d c8 ff ff       	call   3230 <EVP_MD_CTX_free@plt>
    6a23:	48 8b 85 08 fe ff ff 	mov    -0x1f8(%rbp),%rax
    6a2a:	48 89 c7             	mov    %rax,%rdi
    6a2d:	e8 4e 03 00 00       	call   6d80 <_ZNSt7__cxx1112basic_stringIcSt11char_traitsIcESaIcEEC1Ev>
    6a32:	e9 47 01 00 00       	jmp    6b7e <_Z13hashFromBytesB5cxx11RKSt6vectorIhSaIhEE+0x277>
    6a37:	48 8d 95 10 fe ff ff 	lea    -0x1f0(%rbp),%rdx
    6a3e:	48 8d 4d a0          	lea    -0x60(%rbp),%rcx
    6a42:	48 8b 85 18 fe ff ff 	mov    -0x1e8(%rbp),%rax
    6a49:	48 89 ce             	mov    %rcx,%rsi
    6a4c:	48 89 c7             	mov    %rax,%rdi
    6a4f:	e8 6c c9 ff ff       	call   33c0 <EVP_DigestFinal_ex@plt>
    6a54:	83 f8 01             	cmp    $0x1,%eax
    6a57:	0f 95 c0             	setne  %al
    6a5a:	84 c0                	test   %al,%al
    6a5c:	74 23                	je     6a81 <_Z13hashFromBytesB5cxx11RKSt6vectorIhSaIhEE+0x17a>
    6a5e:	48 8b 85 18 fe ff ff 	mov    -0x1e8(%rbp),%rax
    6a65:	48 89 c7             	mov    %rax,%rdi
    6a68:	e8 c3 c7 ff ff       	call   3230 <EVP_MD_CTX_free@plt>
    6a6d:	48 8b 85 08 fe ff ff 	mov    -0x1f8(%rbp),%rax
    6a74:	48 89 c7             	mov    %rax,%rdi
    6a77:	e8 04 03 00 00       	call   6d80 <_ZNSt7__cxx1112basic_stringIcSt11char_traitsIcESaIcEEC1Ev>
    6a7c:	e9 fd 00 00 00       	jmp    6b7e <_Z13hashFromBytesB5cxx11RKSt6vectorIhSaIhEE+0x277>
    6a81:	48 8b 85 18 fe ff ff 	mov    -0x1e8(%rbp),%rax
    6a88:	48 89 c7             	mov    %rax,%rdi
    6a8b:	e8 a0 c7 ff ff       	call   3230 <EVP_MD_CTX_free@plt>
    6a90:	48 8d 85 20 fe ff ff 	lea    -0x1e0(%rbp),%rax
    6a97:	48 89 c7             	mov    %rax,%rdi
    6a9a:	e8 a1 c8 ff ff       	call   3340 <_ZNSt7__cxx1119basic_ostringstreamIcSt11char_traitsIcESaIcEEC1Ev@plt>
    6a9f:	c7 85 14 fe ff ff 00 	movl   $0x0,-0x1ec(%rbp)
    6aa6:	00 00 00 
    6aa9:	eb 69                	jmp    6b14 <_Z13hashFromBytesB5cxx11RKSt6vectorIhSaIhEE+0x20d>
    6aab:	48 8d 15 9a 02 00 00 	lea    0x29a(%rip),%rdx        # 6d4c <_ZSt3hexRSt8ios_base>
    6ab2:	48 8d 85 20 fe ff ff 	lea    -0x1e0(%rbp),%rax
    6ab9:	48 89 d6             	mov    %rdx,%rsi
    6abc:	48 89 c7             	mov    %rax,%rdi
    6abf:	e8 0c c9 ff ff       	call   33d0 <_ZNSolsEPFRSt8ios_baseS0_E@plt>
    6ac4:	48 89 c3             	mov    %rax,%rbx
    6ac7:	bf 02 00 00 00       	mov    $0x2,%edi
    6acc:	e8 a3 02 00 00       	call   6d74 <_ZSt4setwi>
    6ad1:	89 c6                	mov    %eax,%esi
    6ad3:	48 89 df             	mov    %rbx,%rdi
    6ad6:	e8 45 c7 ff ff       	call   3220 <_ZStlsIcSt11char_traitsIcEERSt13basic_ostreamIT_T0_ES6_St5_Setw@plt>
    6adb:	48 89 c3             	mov    %rax,%rbx
    6ade:	bf 30 00 00 00       	mov    $0x30,%edi
    6ae3:	e8 4a 03 00 00       	call   6e32 <_ZSt7setfillIcESt8_SetfillIT_ES1_>
    6ae8:	89 c6                	mov    %eax,%esi
    6aea:	48 89 df             	mov    %rbx,%rdi
    6aed:	e8 be c7 ff ff       	call   32b0 <_ZStlsIcSt11char_traitsIcEERSt13basic_ostreamIT_T0_ES6_St8_SetfillIS3_E@plt>
    6af2:	48 89 c2             	mov    %rax,%rdx
    6af5:	8b 85 14 fe ff ff    	mov    -0x1ec(%rbp),%eax
    6afb:	0f b6 44 05 a0       	movzbl -0x60(%rbp,%rax,1),%eax
    6b00:	0f b6 c0             	movzbl %al,%eax
    6b03:	89 c6                	mov    %eax,%esi
    6b05:	48 89 d7             	mov    %rdx,%rdi
    6b08:	e8 83 c6 ff ff       	call   3190 <_ZNSolsEi@plt>
    6b0d:	83 85 14 fe ff ff 01 	addl   $0x1,-0x1ec(%rbp)
    6b14:	8b 85 10 fe ff ff    	mov    -0x1f0(%rbp),%eax
    6b1a:	39 85 14 fe ff ff    	cmp    %eax,-0x1ec(%rbp)
    6b20:	72 89                	jb     6aab <_Z13hashFromBytesB5cxx11RKSt6vectorIhSaIhEE+0x1a4>
    6b22:	48 8b 85 08 fe ff ff 	mov    -0x1f8(%rbp),%rax
    6b29:	48 8d 95 20 fe ff ff 	lea    -0x1e0(%rbp),%rdx
    6b30:	48 89 d6             	mov    %rdx,%rsi
    6b33:	48 89 c7             	mov    %rax,%rdi
    6b36:	e8 75 c8 ff ff       	call   33b0 <_ZNKSt7__cxx1119basic_ostringstreamIcSt11char_traitsIcESaIcEE3strEv@plt>
    6b3b:	90                   	nop
    6b3c:	48 8d 85 20 fe ff ff 	lea    -0x1e0(%rbp),%rax
    6b43:	48 89 c7             	mov    %rax,%rdi
    6b46:	e8 c5 c7 ff ff       	call   3310 <_ZNSt7__cxx1119basic_ostringstreamIcSt11char_traitsIcESaIcEED1Ev@plt>
    6b4b:	eb 31                	jmp    6b7e <_Z13hashFromBytesB5cxx11RKSt6vectorIhSaIhEE+0x277>
    6b4d:	48 89 c3             	mov    %rax,%rbx
    6b50:	48 8d 85 20 fe ff ff 	lea    -0x1e0(%rbp),%rax
    6b57:	48 89 c7             	mov    %rax,%rdi
    6b5a:	e8 b1 c7 ff ff       	call   3310 <_ZNSt7__cxx1119basic_ostringstreamIcSt11char_traitsIcESaIcEED1Ev@plt>
    6b5f:	48 89 d8             	mov    %rbx,%rax
    6b62:	48 8b 55 e8          	mov    -0x18(%rbp),%rdx
    6b66:	64 48 2b 14 25 28 00 	sub    %fs:0x28,%rdx
    6b6d:	00 00 
    6b6f:	74 05                	je     6b76 <_Z13hashFromBytesB5cxx11RKSt6vectorIhSaIhEE+0x26f>
    6b71:	e8 ea c5 ff ff       	call   3160 <__stack_chk_fail@plt>
    6b76:	48 89 c7             	mov    %rax,%rdi
    6b79:	e8 02 c7 ff ff       	call   3280 <_Unwind_Resume@plt>
    6b7e:	48 8b 45 e8          	mov    -0x18(%rbp),%rax
    6b82:	64 48 2b 04 25 28 00 	sub    %fs:0x28,%rax
    6b89:	00 00 
    6b8b:	74 05                	je     6b92 <_Z13hashFromBytesB5cxx11RKSt6vectorIhSaIhEE+0x28b>
    6b8d:	e8 ce c5 ff ff       	call   3160 <__stack_chk_fail@plt>
    6b92:	48 8b 85 08 fe ff ff 	mov    -0x1f8(%rbp),%rax
    6b99:	48 8b 5d f8          	mov    -0x8(%rbp),%rbx
    6b9d:	c9                   	leave
    6b9e:	c3                   	ret

0000000000006b9f <_Z12hashFromFileRKNSt7__cxx1112basic_stringIcSt11char_traitsIcESaIcEEE>:
    6b9f:	55                   	push   %rbp
    6ba0:	48 89 e5             	mov    %rsp,%rbp
    6ba3:	53                   	push   %rbx
    6ba4:	48 83 ec 38          	sub    $0x38,%rsp
    6ba8:	48 89 7d c8          	mov    %rdi,-0x38(%rbp)
    6bac:	48 89 75 c0          	mov    %rsi,-0x40(%rbp)
    6bb0:	64 48 8b 04 25 28 00 	mov    %fs:0x28,%rax
    6bb7:	00 00 
    6bb9:	48 89 45 e8          	mov    %rax,-0x18(%rbp)
    6bbd:	31 c0                	xor    %eax,%eax
    6bbf:	48 8d 45 d0          	lea    -0x30(%rbp),%rax
    6bc3:	48 8b 55 c0          	mov    -0x40(%rbp),%rdx
    6bc7:	48 89 d6             	mov    %rdx,%rsi
    6bca:	48 89 c7             	mov    %rax,%rdi
    6bcd:	e8 21 e9 ff ff       	call   54f3 <_Z8readFileRKNSt7__cxx1112basic_stringIcSt11char_traitsIcESaIcEEE>
    6bd2:	48 8d 45 d0          	lea    -0x30(%rbp),%rax
    6bd6:	48 89 c7             	mov    %rax,%rdi
    6bd9:	e8 f2 fb ff ff       	call   67d0 <_ZNKSt6vectorIhSaIhEE5emptyEv>
    6bde:	84 c0                	test   %al,%al
    6be0:	74 0e                	je     6bf0 <_Z12hashFromFileRKNSt7__cxx1112basic_stringIcSt11char_traitsIcESaIcEEE+0x51>
    6be2:	48 8b 45 c8          	mov    -0x38(%rbp),%rax
    6be6:	48 89 c7             	mov    %rax,%rdi
    6be9:	e8 92 01 00 00       	call   6d80 <_ZNSt7__cxx1112basic_stringIcSt11char_traitsIcESaIcEEC1Ev>
    6bee:	eb 13                	jmp    6c03 <_Z12hashFromFileRKNSt7__cxx1112basic_stringIcSt11char_traitsIcESaIcEEE+0x64>
    6bf0:	48 8b 45 c8          	mov    -0x38(%rbp),%rax
    6bf4:	48 8d 55 d0          	lea    -0x30(%rbp),%rdx
    6bf8:	48 89 d6             	mov    %rdx,%rsi
    6bfb:	48 89 c7             	mov    %rax,%rdi
    6bfe:	e8 04 fd ff ff       	call   6907 <_Z13hashFromBytesB5cxx11RKSt6vectorIhSaIhEE>
    6c03:	48 8d 45 d0          	lea    -0x30(%rbp),%rax
    6c07:	48 89 c7             	mov    %rax,%rdi
    6c0a:	e8 55 ed ff ff       	call   5964 <_ZNSt6vectorIhSaIhEED1Ev>
    6c0f:	48 8b 45 e8          	mov    -0x18(%rbp),%rax
    6c13:	64 48 2b 04 25 28 00 	sub    %fs:0x28,%rax
    6c1a:	00 00 
    6c1c:	74 35                	je     6c53 <_Z12hashFromFileRKNSt7__cxx1112basic_stringIcSt11char_traitsIcESaIcEEE+0xb4>
    6c1e:	eb 2e                	jmp    6c4e <_Z12hashFromFileRKNSt7__cxx1112basic_stringIcSt11char_traitsIcESaIcEEE+0xaf>
    6c20:	48 89 c3             	mov    %rax,%rbx
    6c23:	48 8d 45 d0          	lea    -0x30(%rbp),%rax
    6c27:	48 89 c7             	mov    %rax,%rdi
    6c2a:	e8 35 ed ff ff       	call   5964 <_ZNSt6vectorIhSaIhEED1Ev>
    6c2f:	48 89 d8             	mov    %rbx,%rax
    6c32:	48 8b 55 e8          	mov    -0x18(%rbp),%rdx
    6c36:	64 48 2b 14 25 28 00 	sub    %fs:0x28,%rdx
    6c3d:	00 00 
    6c3f:	74 05                	je     6c46 <_Z12hashFromFileRKNSt7__cxx1112basic_stringIcSt11char_traitsIcESaIcEEE+0xa7>
    6c41:	e8 1a c5 ff ff       	call   3160 <__stack_chk_fail@plt>
    6c46:	48 89 c7             	mov    %rax,%rdi
    6c49:	e8 32 c6 ff ff       	call   3280 <_Unwind_Resume@plt>
    6c4e:	e8 0d c5 ff ff       	call   3160 <__stack_chk_fail@plt>
    6c53:	48 8b 45 c8          	mov    -0x38(%rbp),%rax
    6c57:	48 8b 5d f8          	mov    -0x8(%rbp),%rbx
    6c5b:	c9                   	leave
    6c5c:	c3                   	ret

0000000000006c5d <_ZStanSt13_Ios_FmtflagsS_>:
    6c5d:	55                   	push   %rbp
    6c5e:	48 89 e5             	mov    %rsp,%rbp
    6c61:	89 7d fc             	mov    %edi,-0x4(%rbp)
    6c64:	89 75 f8             	mov    %esi,-0x8(%rbp)
    6c67:	8b 45 fc             	mov    -0x4(%rbp),%eax
    6c6a:	23 45 f8             	and    -0x8(%rbp),%eax
    6c6d:	5d                   	pop    %rbp
    6c6e:	c3                   	ret

0000000000006c6f <_ZStorSt13_Ios_FmtflagsS_>:
    6c6f:	55                   	push   %rbp
    6c70:	48 89 e5             	mov    %rsp,%rbp
    6c73:	89 7d fc             	mov    %edi,-0x4(%rbp)
    6c76:	89 75 f8             	mov    %esi,-0x8(%rbp)
    6c79:	8b 45 fc             	mov    -0x4(%rbp),%eax
    6c7c:	0b 45 f8             	or     -0x8(%rbp),%eax
    6c7f:	5d                   	pop    %rbp
    6c80:	c3                   	ret

0000000000006c81 <_ZStcoSt13_Ios_Fmtflags>:
    6c81:	55                   	push   %rbp
    6c82:	48 89 e5             	mov    %rsp,%rbp
    6c85:	89 7d fc             	mov    %edi,-0x4(%rbp)
    6c88:	8b 45 fc             	mov    -0x4(%rbp),%eax
    6c8b:	f7 d0                	not    %eax
    6c8d:	5d                   	pop    %rbp
    6c8e:	c3                   	ret

0000000000006c8f <_ZStoRRSt13_Ios_FmtflagsS_>:
    6c8f:	55                   	push   %rbp
    6c90:	48 89 e5             	mov    %rsp,%rbp
    6c93:	48 83 ec 10          	sub    $0x10,%rsp
    6c97:	48 89 7d f8          	mov    %rdi,-0x8(%rbp)
    6c9b:	89 75 f4             	mov    %esi,-0xc(%rbp)
    6c9e:	48 8b 45 f8          	mov    -0x8(%rbp),%rax
    6ca2:	8b 00                	mov    (%rax),%eax
    6ca4:	8b 55 f4             	mov    -0xc(%rbp),%edx
    6ca7:	89 d6                	mov    %edx,%esi
    6ca9:	89 c7                	mov    %eax,%edi
    6cab:	e8 bf ff ff ff       	call   6c6f <_ZStorSt13_Ios_FmtflagsS_>
    6cb0:	48 8b 55 f8          	mov    -0x8(%rbp),%rdx
    6cb4:	89 02                	mov    %eax,(%rdx)
    6cb6:	48 8b 45 f8          	mov    -0x8(%rbp),%rax
    6cba:	c9                   	leave
    6cbb:	c3                   	ret

0000000000006cbc <_ZStaNRSt13_Ios_FmtflagsS_>:
    6cbc:	55                   	push   %rbp
    6cbd:	48 89 e5             	mov    %rsp,%rbp
    6cc0:	48 83 ec 10          	sub    $0x10,%rsp
    6cc4:	48 89 7d f8          	mov    %rdi,-0x8(%rbp)
    6cc8:	89 75 f4             	mov    %esi,-0xc(%rbp)
    6ccb:	48 8b 45 f8          	mov    -0x8(%rbp),%rax
    6ccf:	8b 00                	mov    (%rax),%eax
    6cd1:	8b 55 f4             	mov    -0xc(%rbp),%edx
    6cd4:	89 d6                	mov    %edx,%esi
    6cd6:	89 c7                	mov    %eax,%edi
    6cd8:	e8 80 ff ff ff       	call   6c5d <_ZStanSt13_Ios_FmtflagsS_>
    6cdd:	48 8b 55 f8          	mov    -0x8(%rbp),%rdx
    6ce1:	89 02                	mov    %eax,(%rdx)
    6ce3:	48 8b 45 f8          	mov    -0x8(%rbp),%rax
    6ce7:	c9                   	leave
    6ce8:	c3                   	ret
    6ce9:	90                   	nop

0000000000006cea <_ZNSt8ios_base4setfESt13_Ios_FmtflagsS0_>:
    6cea:	55                   	push   %rbp
    6ceb:	48 89 e5             	mov    %rsp,%rbp
    6cee:	48 83 ec 20          	sub    $0x20,%rsp
    6cf2:	48 89 7d e8          	mov    %rdi,-0x18(%rbp)
    6cf6:	89 75 e4             	mov    %esi,-0x1c(%rbp)
    6cf9:	89 55 e0             	mov    %edx,-0x20(%rbp)
    6cfc:	48 8b 45 e8          	mov    -0x18(%rbp),%rax
    6d00:	8b 40 18             	mov    0x18(%rax),%eax
    6d03:	89 45 fc             	mov    %eax,-0x4(%rbp)
    6d06:	8b 45 e0             	mov    -0x20(%rbp),%eax
    6d09:	89 c7                	mov    %eax,%edi
    6d0b:	e8 71 ff ff ff       	call   6c81 <_ZStcoSt13_Ios_Fmtflags>
    6d10:	89 c2                	mov    %eax,%edx
    6d12:	48 8b 45 e8          	mov    -0x18(%rbp),%rax
    6d16:	48 83 c0 18          	add    $0x18,%rax
    6d1a:	89 d6                	mov    %edx,%esi
    6d1c:	48 89 c7             	mov    %rax,%rdi
    6d1f:	e8 98 ff ff ff       	call   6cbc <_ZStaNRSt13_Ios_FmtflagsS_>
    6d24:	8b 55 e0             	mov    -0x20(%rbp),%edx
    6d27:	8b 45 e4             	mov    -0x1c(%rbp),%eax
    6d2a:	89 d6                	mov    %edx,%esi
    6d2c:	89 c7                	mov    %eax,%edi
    6d2e:	e8 2a ff ff ff       	call   6c5d <_ZStanSt13_Ios_FmtflagsS_>
    6d33:	89 c2                	mov    %eax,%edx
    6d35:	48 8b 45 e8          	mov    -0x18(%rbp),%rax
    6d39:	48 83 c0 18          	add    $0x18,%rax
    6d3d:	89 d6                	mov    %edx,%esi
    6d3f:	48 89 c7             	mov    %rax,%rdi
    6d42:	e8 48 ff ff ff       	call   6c8f <_ZStoRRSt13_Ios_FmtflagsS_>
    6d47:	8b 45 fc             	mov    -0x4(%rbp),%eax
    6d4a:	c9                   	leave
    6d4b:	c3                   	ret

0000000000006d4c <_ZSt3hexRSt8ios_base>:
    6d4c:	55                   	push   %rbp
    6d4d:	48 89 e5             	mov    %rsp,%rbp
    6d50:	48 83 ec 10          	sub    $0x10,%rsp
    6d54:	48 89 7d f8          	mov    %rdi,-0x8(%rbp)
    6d58:	48 8b 45 f8          	mov    -0x8(%rbp),%rax
    6d5c:	ba 4a 00 00 00       	mov    $0x4a,%edx
    6d61:	be 08 00 00 00       	mov    $0x8,%esi
    6d66:	48 89 c7             	mov    %rax,%rdi
    6d69:	e8 7c ff ff ff       	call   6cea <_ZNSt8ios_base4setfESt13_Ios_FmtflagsS0_>
    6d6e:	48 8b 45 f8          	mov    -0x8(%rbp),%rax
    6d72:	c9                   	leave
    6d73:	c3                   	ret

0000000000006d74 <_ZSt4setwi>:
    6d74:	55                   	push   %rbp
    6d75:	48 89 e5             	mov    %rsp,%rbp
    6d78:	89 7d fc             	mov    %edi,-0x4(%rbp)
    6d7b:	8b 45 fc             	mov    -0x4(%rbp),%eax
    6d7e:	5d                   	pop    %rbp
    6d7f:	c3                   	ret

0000000000006d80 <_ZNSt7__cxx1112basic_stringIcSt11char_traitsIcESaIcEEC1Ev>:
    6d80:	55                   	push   %rbp
    6d81:	48 89 e5             	mov    %rsp,%rbp
    6d84:	53                   	push   %rbx
    6d85:	48 83 ec 38          	sub    $0x38,%rsp
    6d89:	48 89 7d c8          	mov    %rdi,-0x38(%rbp)
    6d8d:	64 48 8b 04 25 28 00 	mov    %fs:0x28,%rax
    6d94:	00 00 
    6d96:	48 89 45 e8          	mov    %rax,-0x18(%rbp)
    6d9a:	31 c0                	xor    %eax,%eax
    6d9c:	48 8b 5d c8          	mov    -0x38(%rbp),%rbx
    6da0:	48 8d 45 d7          	lea    -0x29(%rbp),%rax
    6da4:	48 89 45 e0          	mov    %rax,-0x20(%rbp)
    6da8:	90                   	nop
    6da9:	90                   	nop
    6daa:	48 8b 45 c8          	mov    -0x38(%rbp),%rax
    6dae:	48 89 c7             	mov    %rax,%rdi
    6db1:	e8 fa d7 ff ff       	call   45b0 <_ZNSt7__cxx1112basic_stringIcSt11char_traitsIcESaIcEE13_M_local_dataEv>
    6db6:	48 89 c1             	mov    %rax,%rcx
    6db9:	48 8d 45 d7          	lea    -0x29(%rbp),%rax
    6dbd:	48 89 c2             	mov    %rax,%rdx
    6dc0:	48 89 ce             	mov    %rcx,%rsi
    6dc3:	48 89 df             	mov    %rbx,%rdi
    6dc6:	e8 03 d8 ff ff       	call   45ce <_ZNSt7__cxx1112basic_stringIcSt11char_traitsIcESaIcEE12_Alloc_hiderC1EPcOS3_>
    6dcb:	48 8d 45 d7          	lea    -0x29(%rbp),%rax
    6dcf:	48 89 c7             	mov    %rax,%rdi
    6dd2:	e8 b7 da ff ff       	call   488e <_ZNSt15__new_allocatorIcED1Ev>
    6dd7:	90                   	nop
    6dd8:	48 8b 45 c8          	mov    -0x38(%rbp),%rax
    6ddc:	48 89 45 d8          	mov    %rax,-0x28(%rbp)
    6de0:	90                   	nop
    6de1:	48 8b 45 c8          	mov    -0x38(%rbp),%rax
    6de5:	be 00 00 00 00       	mov    $0x0,%esi
    6dea:	48 89 c7             	mov    %rax,%rdi
    6ded:	e8 24 d8 ff ff       	call   4616 <_ZNSt7__cxx1112basic_stringIcSt11char_traitsIcESaIcEE13_M_set_lengthEm>
    6df2:	90                   	nop
    6df3:	48 8b 45 e8          	mov    -0x18(%rbp),%rax
    6df7:	64 48 2b 04 25 28 00 	sub    %fs:0x28,%rax
    6dfe:	00 00 
    6e00:	74 05                	je     6e07 <_ZNSt7__cxx1112basic_stringIcSt11char_traitsIcESaIcEEC1Ev+0x87>
    6e02:	e8 59 c3 ff ff       	call   3160 <__stack_chk_fail@plt>
    6e07:	48 8b 5d f8          	mov    -0x8(%rbp),%rbx
    6e0b:	c9                   	leave
    6e0c:	c3                   	ret
    6e0d:	90                   	nop

0000000000006e0e <_ZNKSt6vectorIhSaIhEE4dataEv>:
    6e0e:	55                   	push   %rbp
    6e0f:	48 89 e5             	mov    %rsp,%rbp
    6e12:	48 83 ec 10          	sub    $0x10,%rsp
    6e16:	48 89 7d f8          	mov    %rdi,-0x8(%rbp)
    6e1a:	48 8b 45 f8          	mov    -0x8(%rbp),%rax
    6e1e:	48 8b 10             	mov    (%rax),%rdx
    6e21:	48 8b 45 f8          	mov    -0x8(%rbp),%rax
    6e25:	48 89 d6             	mov    %rdx,%rsi
    6e28:	48 89 c7             	mov    %rax,%rdi
    6e2b:	e8 12 00 00 00       	call   6e42 <_ZNKSt6vectorIhSaIhEE11_M_data_ptrIhEEPT_S4_>
    6e30:	c9                   	leave
    6e31:	c3                   	ret

0000000000006e32 <_ZSt7setfillIcESt8_SetfillIT_ES1_>:
    6e32:	55                   	push   %rbp
    6e33:	48 89 e5             	mov    %rsp,%rbp
    6e36:	89 f8                	mov    %edi,%eax
    6e38:	88 45 fc             	mov    %al,-0x4(%rbp)
    6e3b:	0f b6 45 fc          	movzbl -0x4(%rbp),%eax
    6e3f:	5d                   	pop    %rbp
    6e40:	c3                   	ret
    6e41:	90                   	nop

0000000000006e42 <_ZNKSt6vectorIhSaIhEE11_M_data_ptrIhEEPT_S4_>:
    6e42:	55                   	push   %rbp
    6e43:	48 89 e5             	mov    %rsp,%rbp
    6e46:	48 89 7d f8          	mov    %rdi,-0x8(%rbp)
    6e4a:	48 89 75 f0          	mov    %rsi,-0x10(%rbp)
    6e4e:	48 8b 45 f0          	mov    -0x10(%rbp),%rax
    6e52:	5d                   	pop    %rbp
    6e53:	c3                   	ret

0000000000006e54 <_ZN6LoggerC1ERKNSt7__cxx1112basic_stringIcSt11char_traitsIcESaIcEEE>:
    6e54:	55                   	push   %rbp
    6e55:	48 89 e5             	mov    %rsp,%rbp
    6e58:	53                   	push   %rbx
    6e59:	48 83 ec 18          	sub    $0x18,%rsp
    6e5d:	48 89 7d e8          	mov    %rdi,-0x18(%rbp)
    6e61:	48 89 75 e0          	mov    %rsi,-0x20(%rbp)
    6e65:	48 8b 45 e8          	mov    -0x18(%rbp),%rax
    6e69:	48 89 c7             	mov    %rax,%rdi
    6e6c:	e8 7f 04 00 00       	call   72f0 <_ZNSt5mutexC1Ev>
    6e71:	48 8b 45 e8          	mov    -0x18(%rbp),%rax
    6e75:	48 83 c0 28          	add    $0x28,%rax
    6e79:	48 89 c7             	mov    %rax,%rdi
    6e7c:	e8 af c2 ff ff       	call   3130 <_ZNSt14basic_ofstreamIcSt11char_traitsIcEEC1Ev@plt>
    6e81:	48 8b 45 e0          	mov    -0x20(%rbp),%rax
    6e85:	48 89 c7             	mov    %rax,%rdi
    6e88:	e8 7f d4 ff ff       	call   430c <_ZNKSt7__cxx1112basic_stringIcSt11char_traitsIcESaIcEE5emptyEv>
    6e8d:	83 f0 01             	xor    $0x1,%eax
    6e90:	84 c0                	test   %al,%al
    6e92:	74 3c                	je     6ed0 <_ZN6LoggerC1ERKNSt7__cxx1112basic_stringIcSt11char_traitsIcESaIcEEE+0x7c>
    6e94:	48 8b 45 e8          	mov    -0x18(%rbp),%rax
    6e98:	48 8d 48 28          	lea    0x28(%rax),%rcx
    6e9c:	48 8b 45 e0          	mov    -0x20(%rbp),%rax
    6ea0:	ba 01 00 00 00       	mov    $0x1,%edx
    6ea5:	48 89 c6             	mov    %rax,%rsi
    6ea8:	48 89 cf             	mov    %rcx,%rdi
    6eab:	e8 e0 c3 ff ff       	call   3290 <_ZNSt14basic_ofstreamIcSt11char_traitsIcEE4openERKNSt7__cxx1112basic_stringIcS1_SaIcEEESt13_Ios_Openmode@plt>
    6eb0:	eb 1e                	jmp    6ed0 <_ZN6LoggerC1ERKNSt7__cxx1112basic_stringIcSt11char_traitsIcESaIcEEE+0x7c>
    6eb2:	48 89 c3             	mov    %rax,%rbx
    6eb5:	48 8b 45 e8          	mov    -0x18(%rbp),%rax
    6eb9:	48 83 c0 28          	add    $0x28,%rax
    6ebd:	48 89 c7             	mov    %rax,%rdi
    6ec0:	e8 0b c4 ff ff       	call   32d0 <_ZNSt14basic_ofstreamIcSt11char_traitsIcEED1Ev@plt>
    6ec5:	48 89 d8             	mov    %rbx,%rax
    6ec8:	48 89 c7             	mov    %rax,%rdi
    6ecb:	e8 b0 c3 ff ff       	call   3280 <_Unwind_Resume@plt>
    6ed0:	90                   	nop
    6ed1:	48 8b 5d f8          	mov    -0x8(%rbp),%rbx
    6ed5:	c9                   	leave
    6ed6:	c3                   	ret
    6ed7:	90                   	nop

0000000000006ed8 <_ZN6LoggerD1Ev>:
    6ed8:	55                   	push   %rbp
    6ed9:	48 89 e5             	mov    %rsp,%rbp
    6edc:	48 83 ec 10          	sub    $0x10,%rsp
    6ee0:	48 89 7d f8          	mov    %rdi,-0x8(%rbp)
    6ee4:	48 8b 45 f8          	mov    -0x8(%rbp),%rax
    6ee8:	48 83 c0 28          	add    $0x28,%rax
    6eec:	48 89 c7             	mov    %rax,%rdi
    6eef:	e8 ec c3 ff ff       	call   32e0 <_ZNSt14basic_ofstreamIcSt11char_traitsIcEE7is_openEv@plt>
    6ef4:	84 c0                	test   %al,%al
    6ef6:	74 10                	je     6f08 <_ZN6LoggerD1Ev+0x30>
    6ef8:	48 8b 45 f8          	mov    -0x8(%rbp),%rax
    6efc:	48 83 c0 28          	add    $0x28,%rax
    6f00:	48 89 c7             	mov    %rax,%rdi
    6f03:	e8 28 c4 ff ff       	call   3330 <_ZNSt14basic_ofstreamIcSt11char_traitsIcEE5closeEv@plt>
    6f08:	48 8b 45 f8          	mov    -0x8(%rbp),%rax
    6f0c:	48 83 c0 28          	add    $0x28,%rax
    6f10:	48 89 c7             	mov    %rax,%rdi
    6f13:	e8 b8 c3 ff ff       	call   32d0 <_ZNSt14basic_ofstreamIcSt11char_traitsIcEED1Ev@plt>
    6f18:	90                   	nop
    6f19:	c9                   	leave
    6f1a:	c3                   	ret
    6f1b:	90                   	nop

0000000000006f1c <_ZN6Logger4infoERKNSt7__cxx1112basic_stringIcSt11char_traitsIcESaIcEEE>:
    6f1c:	55                   	push   %rbp
    6f1d:	48 89 e5             	mov    %rsp,%rbp
    6f20:	53                   	push   %rbx
    6f21:	48 83 ec 48          	sub    $0x48,%rsp
    6f25:	48 89 7d b8          	mov    %rdi,-0x48(%rbp)
    6f29:	48 89 75 b0          	mov    %rsi,-0x50(%rbp)
    6f2d:	64 48 8b 04 25 28 00 	mov    %fs:0x28,%rax
    6f34:	00 00 
    6f36:	48 89 45 e8          	mov    %rax,-0x18(%rbp)
    6f3a:	31 c0                	xor    %eax,%eax
    6f3c:	48 8b 55 b8          	mov    -0x48(%rbp),%rdx
    6f40:	48 8d 45 c8          	lea    -0x38(%rbp),%rax
    6f44:	48 89 d6             	mov    %rdx,%rsi
    6f47:	48 89 c7             	mov    %rax,%rdi
    6f4a:	e8 fb 03 00 00       	call   734a <_ZNSt10lock_guardISt5mutexEC1ERS0_>
    6f4f:	e8 4c c3 ff ff       	call   32a0 <_ZNSt6chrono3_V212system_clock3nowEv@plt>
    6f54:	48 89 45 d0          	mov    %rax,-0x30(%rbp)
    6f58:	48 8d 45 d0          	lea    -0x30(%rbp),%rax
    6f5c:	48 89 c7             	mov    %rax,%rdi
    6f5f:	e8 a8 03 00 00       	call   730c <_ZNKSt6chrono10time_pointINS_3_V212system_clockENS_8durationIlSt5ratioILl1ELl1000000000EEEEE16time_since_epochEv>
    6f64:	48 89 45 d8          	mov    %rax,-0x28(%rbp)
    6f68:	48 8d 45 d8          	lea    -0x28(%rbp),%rax
    6f6c:	48 89 c7             	mov    %rax,%rdi
    6f6f:	e8 a9 03 00 00       	call   731d <_ZNSt6chrono13duration_castINS_8durationIlSt5ratioILl1ELl1EEEElS2_ILl1ELl1000000000EEEENSt9enable_ifIXsrNS_13__is_durationIT_EE5valueES8_E4typeERKNS1_IT0_T1_EE>
    6f74:	48 89 45 e0          	mov    %rax,-0x20(%rbp)
    6f78:	48 8d 45 e0          	lea    -0x20(%rbp),%rax
    6f7c:	48 89 c7             	mov    %rax,%rdi
    6f7f:	e8 b4 03 00 00       	call   7338 <_ZNKSt6chrono8durationIlSt5ratioILl1ELl1EEE5countEv>
    6f84:	90                   	nop
    6f85:	48 89 45 e0          	mov    %rax,-0x20(%rbp)
    6f89:	48 8b 45 b8          	mov    -0x48(%rbp),%rax
    6f8d:	48 83 c0 28          	add    $0x28,%rax
    6f91:	48 89 c7             	mov    %rax,%rdi
    6f94:	e8 47 c3 ff ff       	call   32e0 <_ZNSt14basic_ofstreamIcSt11char_traitsIcEE7is_openEv@plt>
    6f99:	84 c0                	test   %al,%al
    6f9b:	74 6d                	je     700a <_ZN6Logger4infoERKNSt7__cxx1112basic_stringIcSt11char_traitsIcESaIcEEE+0xee>
    6f9d:	48 8b 45 b8          	mov    -0x48(%rbp),%rax
    6fa1:	48 83 c0 28          	add    $0x28,%rax
    6fa5:	48 8d 15 36 24 00 00 	lea    0x2436(%rip),%rdx        # 93e2 <_IO_stdin_used+0x3e2>
    6fac:	48 89 d6             	mov    %rdx,%rsi
    6faf:	48 89 c7             	mov    %rax,%rdi
    6fb2:	e8 99 c2 ff ff       	call   3250 <_ZStlsISt11char_traitsIcEERSt13basic_ostreamIcT_ES5_PKc@plt>
    6fb7:	48 89 c3             	mov    %rax,%rbx
    6fba:	48 8d 45 e0          	lea    -0x20(%rbp),%rax
    6fbe:	48 89 c7             	mov    %rax,%rdi
    6fc1:	e8 8a c3 ff ff       	call   3350 <ctime@plt>
    6fc6:	48 89 c6             	mov    %rax,%rsi
    6fc9:	48 89 df             	mov    %rbx,%rdi
    6fcc:	e8 7f c2 ff ff       	call   3250 <_ZStlsISt11char_traitsIcEERSt13basic_ostreamIcT_ES5_PKc@plt>
    6fd1:	48 89 c2             	mov    %rax,%rdx
    6fd4:	48 8d 05 0f 24 00 00 	lea    0x240f(%rip),%rax        # 93ea <_IO_stdin_used+0x3ea>
    6fdb:	48 89 c6             	mov    %rax,%rsi
    6fde:	48 89 d7             	mov    %rdx,%rdi
    6fe1:	e8 6a c2 ff ff       	call   3250 <_ZStlsISt11char_traitsIcEERSt13basic_ostreamIcT_ES5_PKc@plt>
    6fe6:	48 89 c2             	mov    %rax,%rdx
    6fe9:	48 8b 45 b0          	mov    -0x50(%rbp),%rax
    6fed:	48 89 c6             	mov    %rax,%rsi
    6ff0:	48 89 d7             	mov    %rdx,%rdi
    6ff3:	e8 88 c1 ff ff       	call   3180 <_ZStlsIcSt11char_traitsIcESaIcEERSt13basic_ostreamIT_T0_ES7_RKNSt7__cxx1112basic_stringIS4_S5_T1_EE@plt>
    6ff8:	48 8b 15 d1 5f 00 00 	mov    0x5fd1(%rip),%rdx        # cfd0 <_ZSt4endlIcSt11char_traitsIcEERSt13basic_ostreamIT_T0_ES6_@GLIBCXX_3.4>
    6fff:	48 89 d6             	mov    %rdx,%rsi
    7002:	48 89 c7             	mov    %rax,%rdi
    7005:	e8 56 c3 ff ff       	call   3360 <_ZNSolsEPFRSoS_E@plt>
    700a:	48 8d 15 d1 23 00 00 	lea    0x23d1(%rip),%rdx        # 93e2 <_IO_stdin_used+0x3e2>
    7011:	48 8d 05 e8 61 00 00 	lea    0x61e8(%rip),%rax        # d200 <_ZSt4cout@GLIBCXX_3.4>
    7018:	48 89 d6             	mov    %rdx,%rsi
    701b:	48 89 c7             	mov    %rax,%rdi
    701e:	e8 2d c2 ff ff       	call   3250 <_ZStlsISt11char_traitsIcEERSt13basic_ostreamIcT_ES5_PKc@plt>
    7023:	48 89 c2             	mov    %rax,%rdx
    7026:	48 8b 45 b0          	mov    -0x50(%rbp),%rax
    702a:	48 89 c6             	mov    %rax,%rsi
    702d:	48 89 d7             	mov    %rdx,%rdi
    7030:	e8 4b c1 ff ff       	call   3180 <_ZStlsIcSt11char_traitsIcESaIcEERSt13basic_ostreamIT_T0_ES7_RKNSt7__cxx1112basic_stringIS4_S5_T1_EE@plt>
    7035:	48 8b 15 94 5f 00 00 	mov    0x5f94(%rip),%rdx        # cfd0 <_ZSt4endlIcSt11char_traitsIcEERSt13basic_ostreamIT_T0_ES6_@GLIBCXX_3.4>
    703c:	48 89 d6             	mov    %rdx,%rsi
    703f:	48 89 c7             	mov    %rax,%rdi
    7042:	e8 19 c3 ff ff       	call   3360 <_ZNSolsEPFRSoS_E@plt>
    7047:	48 8d 45 c8          	lea    -0x38(%rbp),%rax
    704b:	48 89 c7             	mov    %rax,%rdi
    704e:	e8 25 03 00 00       	call   7378 <_ZNSt10lock_guardISt5mutexED1Ev>
    7053:	48 8b 45 e8          	mov    -0x18(%rbp),%rax
    7057:	64 48 2b 04 25 28 00 	sub    %fs:0x28,%rax
    705e:	00 00 
    7060:	74 35                	je     7097 <_ZN6Logger4infoERKNSt7__cxx1112basic_stringIcSt11char_traitsIcESaIcEEE+0x17b>
    7062:	eb 2e                	jmp    7092 <_ZN6Logger4infoERKNSt7__cxx1112basic_stringIcSt11char_traitsIcESaIcEEE+0x176>
    7064:	48 89 c3             	mov    %rax,%rbx
    7067:	48 8d 45 c8          	lea    -0x38(%rbp),%rax
    706b:	48 89 c7             	mov    %rax,%rdi
    706e:	e8 05 03 00 00       	call   7378 <_ZNSt10lock_guardISt5mutexED1Ev>
    7073:	48 89 d8             	mov    %rbx,%rax
    7076:	48 8b 55 e8          	mov    -0x18(%rbp),%rdx
    707a:	64 48 2b 14 25 28 00 	sub    %fs:0x28,%rdx
    7081:	00 00 
    7083:	74 05                	je     708a <_ZN6Logger4infoERKNSt7__cxx1112basic_stringIcSt11char_traitsIcESaIcEEE+0x16e>
    7085:	e8 d6 c0 ff ff       	call   3160 <__stack_chk_fail@plt>
    708a:	48 89 c7             	mov    %rax,%rdi
    708d:	e8 ee c1 ff ff       	call   3280 <_Unwind_Resume@plt>
    7092:	e8 c9 c0 ff ff       	call   3160 <__stack_chk_fail@plt>
    7097:	48 8b 5d f8          	mov    -0x8(%rbp),%rbx
    709b:	c9                   	leave
    709c:	c3                   	ret
    709d:	90                   	nop

000000000000709e <_ZN6Logger5errorERKNSt7__cxx1112basic_stringIcSt11char_traitsIcESaIcEEE>:
    709e:	55                   	push   %rbp
    709f:	48 89 e5             	mov    %rsp,%rbp
    70a2:	53                   	push   %rbx
    70a3:	48 83 ec 48          	sub    $0x48,%rsp
    70a7:	48 89 7d b8          	mov    %rdi,-0x48(%rbp)
    70ab:	48 89 75 b0          	mov    %rsi,-0x50(%rbp)
    70af:	64 48 8b 04 25 28 00 	mov    %fs:0x28,%rax
    70b6:	00 00 
    70b8:	48 89 45 e8          	mov    %rax,-0x18(%rbp)
    70bc:	31 c0                	xor    %eax,%eax
    70be:	48 8b 55 b8          	mov    -0x48(%rbp),%rdx
    70c2:	48 8d 45 c8          	lea    -0x38(%rbp),%rax
    70c6:	48 89 d6             	mov    %rdx,%rsi
    70c9:	48 89 c7             	mov    %rax,%rdi
    70cc:	e8 79 02 00 00       	call   734a <_ZNSt10lock_guardISt5mutexEC1ERS0_>
    70d1:	e8 ca c1 ff ff       	call   32a0 <_ZNSt6chrono3_V212system_clock3nowEv@plt>
    70d6:	48 89 45 d0          	mov    %rax,-0x30(%rbp)
    70da:	48 8d 45 d0          	lea    -0x30(%rbp),%rax
    70de:	48 89 c7             	mov    %rax,%rdi
    70e1:	e8 26 02 00 00       	call   730c <_ZNKSt6chrono10time_pointINS_3_V212system_clockENS_8durationIlSt5ratioILl1ELl1000000000EEEEE16time_since_epochEv>
    70e6:	48 89 45 d8          	mov    %rax,-0x28(%rbp)
    70ea:	48 8d 45 d8          	lea    -0x28(%rbp),%rax
    70ee:	48 89 c7             	mov    %rax,%rdi
    70f1:	e8 27 02 00 00       	call   731d <_ZNSt6chrono13duration_castINS_8durationIlSt5ratioILl1ELl1EEEElS2_ILl1ELl1000000000EEEENSt9enable_ifIXsrNS_13__is_durationIT_EE5valueES8_E4typeERKNS1_IT0_T1_EE>
    70f6:	48 89 45 e0          	mov    %rax,-0x20(%rbp)
    70fa:	48 8d 45 e0          	lea    -0x20(%rbp),%rax
    70fe:	48 89 c7             	mov    %rax,%rdi
    7101:	e8 32 02 00 00       	call   7338 <_ZNKSt6chrono8durationIlSt5ratioILl1ELl1EEE5countEv>
    7106:	90                   	nop
    7107:	48 89 45 e0          	mov    %rax,-0x20(%rbp)
    710b:	48 8b 45 b8          	mov    -0x48(%rbp),%rax
    710f:	48 83 c0 28          	add    $0x28,%rax
    7113:	48 89 c7             	mov    %rax,%rdi
    7116:	e8 c5 c1 ff ff       	call   32e0 <_ZNSt14basic_ofstreamIcSt11char_traitsIcEE7is_openEv@plt>
    711b:	84 c0                	test   %al,%al
    711d:	74 6d                	je     718c <_ZN6Logger5errorERKNSt7__cxx1112basic_stringIcSt11char_traitsIcESaIcEEE+0xee>
    711f:	48 8b 45 b8          	mov    -0x48(%rbp),%rax
    7123:	48 83 c0 28          	add    $0x28,%rax
    7127:	48 8d 15 be 22 00 00 	lea    0x22be(%rip),%rdx        # 93ec <_IO_stdin_used+0x3ec>
    712e:	48 89 d6             	mov    %rdx,%rsi
    7131:	48 89 c7             	mov    %rax,%rdi
    7134:	e8 17 c1 ff ff       	call   3250 <_ZStlsISt11char_traitsIcEERSt13basic_ostreamIcT_ES5_PKc@plt>
    7139:	48 89 c3             	mov    %rax,%rbx
    713c:	48 8d 45 e0          	lea    -0x20(%rbp),%rax
    7140:	48 89 c7             	mov    %rax,%rdi
    7143:	e8 08 c2 ff ff       	call   3350 <ctime@plt>
    7148:	48 89 c6             	mov    %rax,%rsi
    714b:	48 89 df             	mov    %rbx,%rdi
    714e:	e8 fd c0 ff ff       	call   3250 <_ZStlsISt11char_traitsIcEERSt13basic_ostreamIcT_ES5_PKc@plt>
    7153:	48 89 c2             	mov    %rax,%rdx
    7156:	48 8d 05 8d 22 00 00 	lea    0x228d(%rip),%rax        # 93ea <_IO_stdin_used+0x3ea>
    715d:	48 89 c6             	mov    %rax,%rsi
    7160:	48 89 d7             	mov    %rdx,%rdi
    7163:	e8 e8 c0 ff ff       	call   3250 <_ZStlsISt11char_traitsIcEERSt13basic_ostreamIcT_ES5_PKc@plt>
    7168:	48 89 c2             	mov    %rax,%rdx
    716b:	48 8b 45 b0          	mov    -0x50(%rbp),%rax
    716f:	48 89 c6             	mov    %rax,%rsi
    7172:	48 89 d7             	mov    %rdx,%rdi
    7175:	e8 06 c0 ff ff       	call   3180 <_ZStlsIcSt11char_traitsIcESaIcEERSt13basic_ostreamIT_T0_ES7_RKNSt7__cxx1112basic_stringIS4_S5_T1_EE@plt>
    717a:	48 8b 15 4f 5e 00 00 	mov    0x5e4f(%rip),%rdx        # cfd0 <_ZSt4endlIcSt11char_traitsIcEERSt13basic_ostreamIT_T0_ES6_@GLIBCXX_3.4>
    7181:	48 89 d6             	mov    %rdx,%rsi
    7184:	48 89 c7             	mov    %rax,%rdi
    7187:	e8 d4 c1 ff ff       	call   3360 <_ZNSolsEPFRSoS_E@plt>
    718c:	48 8d 15 59 22 00 00 	lea    0x2259(%rip),%rdx        # 93ec <_IO_stdin_used+0x3ec>
    7193:	48 8d 05 86 61 00 00 	lea    0x6186(%rip),%rax        # d320 <_ZSt4cerr@GLIBCXX_3.4>
    719a:	48 89 d6             	mov    %rdx,%rsi
    719d:	48 89 c7             	mov    %rax,%rdi
    71a0:	e8 ab c0 ff ff       	call   3250 <_ZStlsISt11char_traitsIcEERSt13basic_ostreamIcT_ES5_PKc@plt>
    71a5:	48 89 c2             	mov    %rax,%rdx
    71a8:	48 8b 45 b0          	mov    -0x50(%rbp),%rax
    71ac:	48 89 c6             	mov    %rax,%rsi
    71af:	48 89 d7             	mov    %rdx,%rdi
    71b2:	e8 c9 bf ff ff       	call   3180 <_ZStlsIcSt11char_traitsIcESaIcEERSt13basic_ostreamIT_T0_ES7_RKNSt7__cxx1112basic_stringIS4_S5_T1_EE@plt>
    71b7:	48 8b 15 12 5e 00 00 	mov    0x5e12(%rip),%rdx        # cfd0 <_ZSt4endlIcSt11char_traitsIcEERSt13basic_ostreamIT_T0_ES6_@GLIBCXX_3.4>
    71be:	48 89 d6             	mov    %rdx,%rsi
    71c1:	48 89 c7             	mov    %rax,%rdi
    71c4:	e8 97 c1 ff ff       	call   3360 <_ZNSolsEPFRSoS_E@plt>
    71c9:	48 8d 45 c8          	lea    -0x38(%rbp),%rax
    71cd:	48 89 c7             	mov    %rax,%rdi
    71d0:	e8 a3 01 00 00       	call   7378 <_ZNSt10lock_guardISt5mutexED1Ev>
    71d5:	48 8b 45 e8          	mov    -0x18(%rbp),%rax
    71d9:	64 48 2b 04 25 28 00 	sub    %fs:0x28,%rax
    71e0:	00 00 
    71e2:	74 35                	je     7219 <_ZN6Logger5errorERKNSt7__cxx1112basic_stringIcSt11char_traitsIcESaIcEEE+0x17b>
    71e4:	eb 2e                	jmp    7214 <_ZN6Logger5errorERKNSt7__cxx1112basic_stringIcSt11char_traitsIcESaIcEEE+0x176>
    71e6:	48 89 c3             	mov    %rax,%rbx
    71e9:	48 8d 45 c8          	lea    -0x38(%rbp),%rax
    71ed:	48 89 c7             	mov    %rax,%rdi
    71f0:	e8 83 01 00 00       	call   7378 <_ZNSt10lock_guardISt5mutexED1Ev>
    71f5:	48 89 d8             	mov    %rbx,%rax
    71f8:	48 8b 55 e8          	mov    -0x18(%rbp),%rdx
    71fc:	64 48 2b 14 25 28 00 	sub    %fs:0x28,%rdx
    7203:	00 00 
    7205:	74 05                	je     720c <_ZN6Logger5errorERKNSt7__cxx1112basic_stringIcSt11char_traitsIcESaIcEEE+0x16e>
    7207:	e8 54 bf ff ff       	call   3160 <__stack_chk_fail@plt>
    720c:	48 89 c7             	mov    %rax,%rdi
    720f:	e8 6c c0 ff ff       	call   3280 <_Unwind_Resume@plt>
    7214:	e8 47 bf ff ff       	call   3160 <__stack_chk_fail@plt>
    7219:	48 8b 5d f8          	mov    -0x8(%rbp),%rbx
    721d:	c9                   	leave
    721e:	c3                   	ret
    721f:	90                   	nop

0000000000007220 <_ZNKSt6chrono8durationIlSt5ratioILl1ELl1000000000EEE5countEv>:
    7220:	55                   	push   %rbp
    7221:	48 89 e5             	mov    %rsp,%rbp
    7224:	48 89 7d f8          	mov    %rdi,-0x8(%rbp)
    7228:	48 8b 45 f8          	mov    -0x8(%rbp),%rax
    722c:	48 8b 00             	mov    (%rax),%rax
    722f:	5d                   	pop    %rbp
    7230:	c3                   	ret
    7231:	90                   	nop

0000000000007232 <_ZNSt6chrono8durationIlSt5ratioILl1ELl1EEEC1IlvEERKT_>:
    7232:	55                   	push   %rbp
    7233:	48 89 e5             	mov    %rsp,%rbp
    7236:	48 89 7d f8          	mov    %rdi,-0x8(%rbp)
    723a:	48 89 75 f0          	mov    %rsi,-0x10(%rbp)
    723e:	48 8b 45 f0          	mov    -0x10(%rbp),%rax
    7242:	48 8b 10             	mov    (%rax),%rdx
    7245:	48 8b 45 f8          	mov    -0x8(%rbp),%rax
    7249:	48 89 10             	mov    %rdx,(%rax)
    724c:	90                   	nop
    724d:	5d                   	pop    %rbp
    724e:	c3                   	ret
    724f:	90                   	nop

0000000000007250 <_ZNSt5mutex4lockEv>:
    7250:	55                   	push   %rbp
    7251:	48 89 e5             	mov    %rsp,%rbp
    7254:	48 83 ec 20          	sub    $0x20,%rsp
    7258:	48 89 7d e8          	mov    %rdi,-0x18(%rbp)
    725c:	48 8b 45 e8          	mov    -0x18(%rbp),%rax
    7260:	48 89 45 f8          	mov    %rax,-0x8(%rbp)
    7264:	b8 01 00 00 00       	mov    $0x1,%eax
    7269:	85 c0                	test   %eax,%eax
    726b:	0f 95 c0             	setne  %al
    726e:	84 c0                	test   %al,%al
    7270:	74 0e                	je     7280 <_ZNSt5mutex4lockEv+0x30>
    7272:	48 8b 45 f8          	mov    -0x8(%rbp),%rax
    7276:	48 89 c7             	mov    %rax,%rdi
    7279:	e8 d2 be ff ff       	call   3150 <pthread_mutex_lock@plt>
    727e:	eb 05                	jmp    7285 <_ZNSt5mutex4lockEv+0x35>
    7280:	b8 00 00 00 00       	mov    $0x0,%eax
    7285:	89 45 f4             	mov    %eax,-0xc(%rbp)
    7288:	83 7d f4 00          	cmpl   $0x0,-0xc(%rbp)
    728c:	74 0a                	je     7298 <_ZNSt5mutex4lockEv+0x48>
    728e:	8b 45 f4             	mov    -0xc(%rbp),%eax
    7291:	89 c7                	mov    %eax,%edi
    7293:	e8 48 bf ff ff       	call   31e0 <_ZSt20__throw_system_errori@plt>
    7298:	90                   	nop
    7299:	c9                   	leave
    729a:	c3                   	ret
    729b:	90                   	nop

000000000000729c <_ZNSt5mutex6unlockEv>:
    729c:	55                   	push   %rbp
    729d:	48 89 e5             	mov    %rsp,%rbp
    72a0:	48 83 ec 20          	sub    $0x20,%rsp
    72a4:	48 89 7d e8          	mov    %rdi,-0x18(%rbp)
    72a8:	48 8b 45 e8          	mov    -0x18(%rbp),%rax
    72ac:	48 89 45 f8          	mov    %rax,-0x8(%rbp)
    72b0:	b8 01 00 00 00       	mov    $0x1,%eax
    72b5:	85 c0                	test   %eax,%eax
    72b7:	0f 95 c0             	setne  %al
    72ba:	84 c0                	test   %al,%al
    72bc:	74 0e                	je     72cc <_ZNSt5mutex6unlockEv+0x30>
    72be:	48 8b 45 f8          	mov    -0x8(%rbp),%rax
    72c2:	48 89 c7             	mov    %rax,%rdi
    72c5:	e8 76 be ff ff       	call   3140 <pthread_mutex_unlock@plt>
    72ca:	eb 01                	jmp    72cd <_ZNSt5mutex6unlockEv+0x31>
    72cc:	90                   	nop
    72cd:	90                   	nop
    72ce:	c9                   	leave
    72cf:	c3                   	ret

00000000000072d0 <_ZNSt12__mutex_baseC1Ev>:
    72d0:	55                   	push   %rbp
    72d1:	48 89 e5             	mov    %rsp,%rbp
    72d4:	48 89 7d f8          	mov    %rdi,-0x8(%rbp)
    72d8:	48 8b 45 f8          	mov    -0x8(%rbp),%rax
    72dc:	66 0f ef c0          	pxor   %xmm0,%xmm0
    72e0:	0f 11 00             	movups %xmm0,(%rax)
    72e3:	0f 11 40 10          	movups %xmm0,0x10(%rax)
    72e7:	66 0f d6 40 20       	movq   %xmm0,0x20(%rax)
    72ec:	90                   	nop
    72ed:	5d                   	pop    %rbp
    72ee:	c3                   	ret
    72ef:	90                   	nop

00000000000072f0 <_ZNSt5mutexC1Ev>:
    72f0:	55                   	push   %rbp
    72f1:	48 89 e5             	mov    %rsp,%rbp
    72f4:	48 83 ec 10          	sub    $0x10,%rsp
    72f8:	48 89 7d f8          	mov    %rdi,-0x8(%rbp)
    72fc:	48 8b 45 f8          	mov    -0x8(%rbp),%rax
    7300:	48 89 c7             	mov    %rax,%rdi
    7303:	e8 c8 ff ff ff       	call   72d0 <_ZNSt12__mutex_baseC1Ev>
    7308:	90                   	nop
    7309:	c9                   	leave
    730a:	c3                   	ret
    730b:	90                   	nop

000000000000730c <_ZNKSt6chrono10time_pointINS_3_V212system_clockENS_8durationIlSt5ratioILl1ELl1000000000EEEEE16time_since_epochEv>:
    730c:	55                   	push   %rbp
    730d:	48 89 e5             	mov    %rsp,%rbp
    7310:	48 89 7d f8          	mov    %rdi,-0x8(%rbp)
    7314:	48 8b 45 f8          	mov    -0x8(%rbp),%rax
    7318:	48 8b 00             	mov    (%rax),%rax
    731b:	5d                   	pop    %rbp
    731c:	c3                   	ret

000000000000731d <_ZNSt6chrono13duration_castINS_8durationIlSt5ratioILl1ELl1EEEElS2_ILl1ELl1000000000EEEENSt9enable_ifIXsrNS_13__is_durationIT_EE5valueES8_E4typeERKNS1_IT0_T1_EE>:
    731d:	55                   	push   %rbp
    731e:	48 89 e5             	mov    %rsp,%rbp
    7321:	48 83 ec 10          	sub    $0x10,%rsp
    7325:	48 89 7d f8          	mov    %rdi,-0x8(%rbp)
    7329:	48 8b 45 f8          	mov    -0x8(%rbp),%rax
    732d:	48 89 c7             	mov    %rax,%rdi
    7330:	e8 61 00 00 00       	call   7396 <_ZNSt6chrono20__duration_cast_implINS_8durationIlSt5ratioILl1ELl1EEEES2_ILl1ELl1000000000EElLb1ELb0EE6__castIlS5_EES4_RKNS1_IT_T0_EE>
    7335:	c9                   	leave
    7336:	c3                   	ret
    7337:	90                   	nop

0000000000007338 <_ZNKSt6chrono8durationIlSt5ratioILl1ELl1EEE5countEv>:
    7338:	55                   	push   %rbp
    7339:	48 89 e5             	mov    %rsp,%rbp
    733c:	48 89 7d f8          	mov    %rdi,-0x8(%rbp)
    7340:	48 8b 45 f8          	mov    -0x8(%rbp),%rax
    7344:	48 8b 00             	mov    (%rax),%rax
    7347:	5d                   	pop    %rbp
    7348:	c3                   	ret
    7349:	90                   	nop

000000000000734a <_ZNSt10lock_guardISt5mutexEC1ERS0_>:
    734a:	55                   	push   %rbp
    734b:	48 89 e5             	mov    %rsp,%rbp
    734e:	48 83 ec 10          	sub    $0x10,%rsp
    7352:	48 89 7d f8          	mov    %rdi,-0x8(%rbp)
    7356:	48 89 75 f0          	mov    %rsi,-0x10(%rbp)
    735a:	48 8b 45 f8          	mov    -0x8(%rbp),%rax
    735e:	48 8b 55 f0          	mov    -0x10(%rbp),%rdx
    7362:	48 89 10             	mov    %rdx,(%rax)
    7365:	48 8b 45 f8          	mov    -0x8(%rbp),%rax
    7369:	48 8b 00             	mov    (%rax),%rax
    736c:	48 89 c7             	mov    %rax,%rdi
    736f:	e8 dc fe ff ff       	call   7250 <_ZNSt5mutex4lockEv>
    7374:	90                   	nop
    7375:	c9                   	leave
    7376:	c3                   	ret
    7377:	90                   	nop

0000000000007378 <_ZNSt10lock_guardISt5mutexED1Ev>:
    7378:	55                   	push   %rbp
    7379:	48 89 e5             	mov    %rsp,%rbp
    737c:	48 83 ec 10          	sub    $0x10,%rsp
    7380:	48 89 7d f8          	mov    %rdi,-0x8(%rbp)
    7384:	48 8b 45 f8          	mov    -0x8(%rbp),%rax
    7388:	48 8b 00             	mov    (%rax),%rax
    738b:	48 89 c7             	mov    %rax,%rdi
    738e:	e8 09 ff ff ff       	call   729c <_ZNSt5mutex6unlockEv>
    7393:	90                   	nop
    7394:	c9                   	leave
    7395:	c3                   	ret

0000000000007396 <_ZNSt6chrono20__duration_cast_implINS_8durationIlSt5ratioILl1ELl1EEEES2_ILl1ELl1000000000EElLb1ELb0EE6__castIlS5_EES4_RKNS1_IT_T0_EE>:
    7396:	55                   	push   %rbp
    7397:	48 89 e5             	mov    %rsp,%rbp
    739a:	48 83 ec 30          	sub    $0x30,%rsp
    739e:	48 89 7d d8          	mov    %rdi,-0x28(%rbp)
    73a2:	64 48 8b 04 25 28 00 	mov    %fs:0x28,%rax
    73a9:	00 00 
    73ab:	48 89 45 f8          	mov    %rax,-0x8(%rbp)
    73af:	31 c0                	xor    %eax,%eax
    73b1:	48 8b 45 d8          	mov    -0x28(%rbp),%rax
    73b5:	48 89 c7             	mov    %rax,%rdi
    73b8:	e8 63 fe ff ff       	call   7220 <_ZNKSt6chrono8durationIlSt5ratioILl1ELl1000000000EEE5countEv>
    73bd:	48 89 c1             	mov    %rax,%rcx
    73c0:	48 ba b3 94 d6 26 e8 	movabs $0x112e0be826d694b3,%rdx
    73c7:	0b 2e 11 
    73ca:	48 89 c8             	mov    %rcx,%rax
    73cd:	48 f7 ea             	imul   %rdx
    73d0:	48 89 d0             	mov    %rdx,%rax
    73d3:	48 c1 f8 1a          	sar    $0x1a,%rax
    73d7:	48 c1 f9 3f          	sar    $0x3f,%rcx
    73db:	48 89 ca             	mov    %rcx,%rdx
    73de:	48 29 d0             	sub    %rdx,%rax
    73e1:	48 89 45 e8          	mov    %rax,-0x18(%rbp)
    73e5:	48 8d 55 e8          	lea    -0x18(%rbp),%rdx
    73e9:	48 8d 45 f0          	lea    -0x10(%rbp),%rax
    73ed:	48 89 d6             	mov    %rdx,%rsi
    73f0:	48 89 c7             	mov    %rax,%rdi
    73f3:	e8 3a fe ff ff       	call   7232 <_ZNSt6chrono8durationIlSt5ratioILl1ELl1EEEC1IlvEERKT_>
    73f8:	48 8b 45 f0          	mov    -0x10(%rbp),%rax
    73fc:	48 8b 55 f8          	mov    -0x8(%rbp),%rdx
    7400:	64 48 2b 14 25 28 00 	sub    %fs:0x28,%rdx
    7407:	00 00 
    7409:	74 05                	je     7410 <_ZNSt6chrono20__duration_cast_implINS_8durationIlSt5ratioILl1ELl1EEEES2_ILl1ELl1000000000EElLb1ELb0EE6__castIlS5_EES4_RKNS1_IT_T0_EE+0x7a>
    740b:	e8 50 bd ff ff       	call   3160 <__stack_chk_fail@plt>
    7410:	c9                   	leave
    7411:	c3                   	ret

0000000000007412 <_ZL14packet_handlerPhPK11pcap_pkthdrPKh>:
    7412:	55                   	push   %rbp
    7413:	48 89 e5             	mov    %rsp,%rbp
    7416:	48 83 ec 50          	sub    $0x50,%rsp
    741a:	48 89 7d c8          	mov    %rdi,-0x38(%rbp)
    741e:	48 89 75 c0          	mov    %rsi,-0x40(%rbp)
    7422:	48 89 55 b8          	mov    %rdx,-0x48(%rbp)
    7426:	64 48 8b 04 25 28 00 	mov    %fs:0x28,%rax
    742d:	00 00 
    742f:	48 89 45 f8          	mov    %rax,-0x8(%rbp)
    7433:	31 c0                	xor    %eax,%eax
    7435:	48 8d 15 b9 1f 00 00 	lea    0x1fb9(%rip),%rdx        # 93f5 <_IO_stdin_used+0x3f5>
    743c:	48 8d 05 bd 5d 00 00 	lea    0x5dbd(%rip),%rax        # d200 <_ZSt4cout@GLIBCXX_3.4>
    7443:	48 89 d6             	mov    %rdx,%rsi
    7446:	48 89 c7             	mov    %rax,%rdi
    7449:	e8 02 be ff ff       	call   3250 <_ZStlsISt11char_traitsIcEERSt13basic_ostreamIcT_ES5_PKc@plt>
    744e:	48 89 c2             	mov    %rax,%rdx
    7451:	48 8b 45 c0          	mov    -0x40(%rbp),%rax
    7455:	8b 40 14             	mov    0x14(%rax),%eax
    7458:	89 c6                	mov    %eax,%esi
    745a:	48 89 d7             	mov    %rdx,%rdi
    745d:	e8 9e be ff ff       	call   3300 <_ZNSolsEj@plt>
    7462:	48 89 c2             	mov    %rax,%rdx
    7465:	48 8d 05 9f 1f 00 00 	lea    0x1f9f(%rip),%rax        # 940b <_IO_stdin_used+0x40b>
    746c:	48 89 c6             	mov    %rax,%rsi
    746f:	48 89 d7             	mov    %rdx,%rdi
    7472:	e8 d9 bd ff ff       	call   3250 <_ZStlsISt11char_traitsIcEERSt13basic_ostreamIcT_ES5_PKc@plt>
    7477:	48 89 c2             	mov    %rax,%rdx
    747a:	48 8b 45 c0          	mov    -0x40(%rbp),%rax
    747e:	8b 40 10             	mov    0x10(%rax),%eax
    7481:	89 c6                	mov    %eax,%esi
    7483:	48 89 d7             	mov    %rdx,%rdi
    7486:	e8 75 be ff ff       	call   3300 <_ZNSolsEj@plt>
    748b:	48 8b 15 3e 5b 00 00 	mov    0x5b3e(%rip),%rdx        # cfd0 <_ZSt4endlIcSt11char_traitsIcEERSt13basic_ostreamIT_T0_ES6_@GLIBCXX_3.4>
    7492:	48 89 d6             	mov    %rdx,%rsi
    7495:	48 89 c7             	mov    %rax,%rdi
    7498:	e8 c3 be ff ff       	call   3360 <_ZNSolsEPFRSoS_E@plt>
    749d:	48 c7 45 e0 10 00 00 	movq   $0x10,-0x20(%rbp)
    74a4:	00 
    74a5:	48 8b 45 c0          	mov    -0x40(%rbp),%rax
    74a9:	8b 40 10             	mov    0x10(%rax),%eax
    74ac:	89 c0                	mov    %eax,%eax
    74ae:	48 89 45 d8          	mov    %rax,-0x28(%rbp)
    74b2:	48 8d 55 e0          	lea    -0x20(%rbp),%rdx
    74b6:	48 8d 45 d8          	lea    -0x28(%rbp),%rax
    74ba:	48 89 d6             	mov    %rdx,%rsi
    74bd:	48 89 c7             	mov    %rax,%rdi
    74c0:	e8 07 da ff ff       	call   4ecc <_ZSt3minImERKT_S2_S2_>
    74c5:	48 8b 00             	mov    (%rax),%rax
    74c8:	48 89 45 f0          	mov    %rax,-0x10(%rbp)
    74cc:	48 c7 45 e8 00 00 00 	movq   $0x0,-0x18(%rbp)
    74d3:	00 
    74d4:	eb 2c                	jmp    7502 <_ZL14packet_handlerPhPK11pcap_pkthdrPKh+0xf0>
    74d6:	48 8b 55 b8          	mov    -0x48(%rbp),%rdx
    74da:	48 8b 45 e8          	mov    -0x18(%rbp),%rax
    74de:	48 01 d0             	add    %rdx,%rax
    74e1:	0f b6 00             	movzbl (%rax),%eax
    74e4:	0f b6 c0             	movzbl %al,%eax
    74e7:	48 8d 15 26 1f 00 00 	lea    0x1f26(%rip),%rdx        # 9414 <_IO_stdin_used+0x414>
    74ee:	89 c6                	mov    %eax,%esi
    74f0:	48 89 d7             	mov    %rdx,%rdi
    74f3:	b8 00 00 00 00       	mov    $0x0,%eax
    74f8:	e8 73 bb ff ff       	call   3070 <printf@plt>
    74fd:	48 83 45 e8 01       	addq   $0x1,-0x18(%rbp)
    7502:	48 8b 45 e8          	mov    -0x18(%rbp),%rax
    7506:	48 3b 45 f0          	cmp    -0x10(%rbp),%rax
    750a:	72 ca                	jb     74d6 <_ZL14packet_handlerPhPK11pcap_pkthdrPKh+0xc4>
    750c:	bf 0a 00 00 00       	mov    $0xa,%edi
    7511:	e8 8a be ff ff       	call   33a0 <putchar@plt>
    7516:	90                   	nop
    7517:	48 8b 45 f8          	mov    -0x8(%rbp),%rax
    751b:	64 48 2b 04 25 28 00 	sub    %fs:0x28,%rax
    7522:	00 00 
    7524:	74 05                	je     752b <_ZL14packet_handlerPhPK11pcap_pkthdrPKh+0x119>
    7526:	e8 35 bc ff ff       	call   3160 <__stack_chk_fail@plt>
    752b:	c9                   	leave
    752c:	c3                   	ret

000000000000752d <_Z14sniffInterfaceRKNSt7__cxx1112basic_stringIcSt11char_traitsIcESaIcEEEi>:
    752d:	55                   	push   %rbp
    752e:	48 89 e5             	mov    %rsp,%rbp
    7531:	53                   	push   %rbx
    7532:	48 81 ec 38 01 00 00 	sub    $0x138,%rsp
    7539:	48 89 bd c8 fe ff ff 	mov    %rdi,-0x138(%rbp)
    7540:	89 b5 c4 fe ff ff    	mov    %esi,-0x13c(%rbp)
    7546:	64 48 8b 04 25 28 00 	mov    %fs:0x28,%rax
    754d:	00 00 
    754f:	48 89 45 e8          	mov    %rax,-0x18(%rbp)
    7553:	31 c0                	xor    %eax,%eax
    7555:	48 8b 85 c8 fe ff ff 	mov    -0x138(%rbp),%rax
    755c:	48 89 c7             	mov    %rax,%rdi
    755f:	e8 0a cb ff ff       	call   406e <_ZNKSt7__cxx1112basic_stringIcSt11char_traitsIcESaIcEE5c_strEv>
    7564:	48 8d 95 e0 fe ff ff 	lea    -0x120(%rbp),%rdx
    756b:	49 89 d0             	mov    %rdx,%r8
    756e:	b9 e8 03 00 00       	mov    $0x3e8,%ecx
    7573:	ba 00 00 00 00       	mov    $0x0,%edx
    7578:	be ff ff 00 00       	mov    $0xffff,%esi
    757d:	48 89 c7             	mov    %rax,%rdi
    7580:	e8 8b bb ff ff       	call   3110 <pcap_open_live@plt>
    7585:	48 89 85 d8 fe ff ff 	mov    %rax,-0x128(%rbp)
    758c:	48 83 bd d8 fe ff ff 	cmpq   $0x0,-0x128(%rbp)
    7593:	00 
    7594:	75 4a                	jne    75e0 <_Z14sniffInterfaceRKNSt7__cxx1112basic_stringIcSt11char_traitsIcESaIcEEEi+0xb3>
    7596:	48 8d 15 7d 1e 00 00 	lea    0x1e7d(%rip),%rdx        # 941a <_IO_stdin_used+0x41a>
    759d:	48 8d 05 7c 5d 00 00 	lea    0x5d7c(%rip),%rax        # d320 <_ZSt4cerr@GLIBCXX_3.4>
    75a4:	48 89 d6             	mov    %rdx,%rsi
    75a7:	48 89 c7             	mov    %rax,%rdi
    75aa:	e8 a1 bc ff ff       	call   3250 <_ZStlsISt11char_traitsIcEERSt13basic_ostreamIcT_ES5_PKc@plt>
    75af:	48 89 c2             	mov    %rax,%rdx
    75b2:	48 8d 85 e0 fe ff ff 	lea    -0x120(%rbp),%rax
    75b9:	48 89 c6             	mov    %rax,%rsi
    75bc:	48 89 d7             	mov    %rdx,%rdi
    75bf:	e8 8c bc ff ff       	call   3250 <_ZStlsISt11char_traitsIcEERSt13basic_ostreamIcT_ES5_PKc@plt>
    75c4:	48 8b 15 05 5a 00 00 	mov    0x5a05(%rip),%rdx        # cfd0 <_ZSt4endlIcSt11char_traitsIcEERSt13basic_ostreamIT_T0_ES6_@GLIBCXX_3.4>
    75cb:	48 89 d6             	mov    %rdx,%rsi
    75ce:	48 89 c7             	mov    %rax,%rdi
    75d1:	e8 8a bd ff ff       	call   3360 <_ZNSolsEPFRSoS_E@plt>
    75d6:	b8 01 00 00 00       	mov    $0x1,%eax
    75db:	e9 a2 00 00 00       	jmp    7682 <_Z14sniffInterfaceRKNSt7__cxx1112basic_stringIcSt11char_traitsIcESaIcEEEi+0x155>
    75e0:	48 8d 15 2b fe ff ff 	lea    -0x1d5(%rip),%rdx        # 7412 <_ZL14packet_handlerPhPK11pcap_pkthdrPKh>
    75e7:	8b b5 c4 fe ff ff    	mov    -0x13c(%rbp),%esi
    75ed:	48 8b 85 d8 fe ff ff 	mov    -0x128(%rbp),%rax
    75f4:	b9 00 00 00 00       	mov    $0x0,%ecx
    75f9:	48 89 c7             	mov    %rax,%rdi
    75fc:	e8 6f bb ff ff       	call   3170 <pcap_loop@plt>
    7601:	89 85 d4 fe ff ff    	mov    %eax,-0x12c(%rbp)
    7607:	83 bd d4 fe ff ff ff 	cmpl   $0xffffffff,-0x12c(%rbp)
    760e:	75 5e                	jne    766e <_Z14sniffInterfaceRKNSt7__cxx1112basic_stringIcSt11char_traitsIcESaIcEEEi+0x141>
    7610:	48 8d 15 1b 1e 00 00 	lea    0x1e1b(%rip),%rdx        # 9432 <_IO_stdin_used+0x432>
    7617:	48 8d 05 02 5d 00 00 	lea    0x5d02(%rip),%rax        # d320 <_ZSt4cerr@GLIBCXX_3.4>
    761e:	48 89 d6             	mov    %rdx,%rsi
    7621:	48 89 c7             	mov    %rax,%rdi
    7624:	e8 27 bc ff ff       	call   3250 <_ZStlsISt11char_traitsIcEERSt13basic_ostreamIcT_ES5_PKc@plt>
    7629:	48 89 c3             	mov    %rax,%rbx
    762c:	48 8b 85 d8 fe ff ff 	mov    -0x128(%rbp),%rax
    7633:	48 89 c7             	mov    %rax,%rdi
    7636:	e8 35 bd ff ff       	call   3370 <pcap_geterr@plt>
    763b:	48 89 c6             	mov    %rax,%rsi
    763e:	48 89 df             	mov    %rbx,%rdi
    7641:	e8 0a bc ff ff       	call   3250 <_ZStlsISt11char_traitsIcEERSt13basic_ostreamIcT_ES5_PKc@plt>
    7646:	48 8b 15 83 59 00 00 	mov    0x5983(%rip),%rdx        # cfd0 <_ZSt4endlIcSt11char_traitsIcEERSt13basic_ostreamIT_T0_ES6_@GLIBCXX_3.4>
    764d:	48 89 d6             	mov    %rdx,%rsi
    7650:	48 89 c7             	mov    %rax,%rdi
    7653:	e8 08 bd ff ff       	call   3360 <_ZNSolsEPFRSoS_E@plt>
    7658:	48 8b 85 d8 fe ff ff 	mov    -0x128(%rbp),%rax
    765f:	48 89 c7             	mov    %rax,%rdi
    7662:	e8 59 ba ff ff       	call   30c0 <pcap_close@plt>
    7667:	b8 02 00 00 00       	mov    $0x2,%eax
    766c:	eb 14                	jmp    7682 <_Z14sniffInterfaceRKNSt7__cxx1112basic_stringIcSt11char_traitsIcESaIcEEEi+0x155>
    766e:	48 8b 85 d8 fe ff ff 	mov    -0x128(%rbp),%rax
    7675:	48 89 c7             	mov    %rax,%rdi
    7678:	e8 43 ba ff ff       	call   30c0 <pcap_close@plt>
    767d:	b8 00 00 00 00       	mov    $0x0,%eax
    7682:	48 8b 55 e8          	mov    -0x18(%rbp),%rdx
    7686:	64 48 2b 14 25 28 00 	sub    %fs:0x28,%rdx
    768d:	00 00 
    768f:	74 05                	je     7696 <_Z14sniffInterfaceRKNSt7__cxx1112basic_stringIcSt11char_traitsIcESaIcEEEi+0x169>
    7691:	e8 ca ba ff ff       	call   3160 <__stack_chk_fail@plt>
    7696:	48 8b 5d f8          	mov    -0x8(%rbp),%rbx
    769a:	c9                   	leave
    769b:	c3                   	ret

000000000000769c <_Z13listProcessesB5cxx11v>:
    769c:	55                   	push   %rbp
    769d:	48 89 e5             	mov    %rsp,%rbp
    76a0:	53                   	push   %rbx
    76a1:	48 81 ec 98 02 00 00 	sub    $0x298,%rsp
    76a8:	48 89 bd 68 fd ff ff 	mov    %rdi,-0x298(%rbp)
    76af:	64 48 8b 04 25 28 00 	mov    %fs:0x28,%rax
    76b6:	00 00 
    76b8:	48 89 45 e8          	mov    %rax,-0x18(%rbp)
    76bc:	31 c0                	xor    %eax,%eax
    76be:	48 8b 85 68 fd ff ff 	mov    -0x298(%rbp),%rax
    76c5:	48 89 c7             	mov    %rax,%rdi
    76c8:	e8 39 03 00 00       	call   7a06 <_ZNSt6vectorISt4pairIiNSt7__cxx1112basic_stringIcSt11char_traitsIcESaIcEEEESaIS7_EEC1Ev>
    76cd:	48 8d 05 74 1d 00 00 	lea    0x1d74(%rip),%rax        # 9448 <_IO_stdin_used+0x448>
    76d4:	48 89 c7             	mov    %rax,%rdi
    76d7:	e8 84 bb ff ff       	call   3260 <opendir@plt>
    76dc:	48 89 85 80 fd ff ff 	mov    %rax,-0x280(%rbp)
    76e3:	48 83 bd 80 fd ff ff 	cmpq   $0x0,-0x280(%rbp)
    76ea:	00 
    76eb:	0f 84 23 02 00 00    	je     7914 <_Z13listProcessesB5cxx11v+0x278>
    76f1:	e9 e4 01 00 00       	jmp    78da <_Z13listProcessesB5cxx11v+0x23e>
    76f6:	48 8b 85 88 fd ff ff 	mov    -0x278(%rbp),%rax
    76fd:	48 83 c0 13          	add    $0x13,%rax
    7701:	48 89 85 90 fd ff ff 	mov    %rax,-0x270(%rbp)
    7708:	c6 85 77 fd ff ff 01 	movb   $0x1,-0x289(%rbp)
    770f:	c7 85 7c fd ff ff 00 	movl   $0x0,-0x284(%rbp)
    7716:	00 00 00 
    7719:	eb 31                	jmp    774c <_Z13listProcessesB5cxx11v+0xb0>
    771b:	8b 85 7c fd ff ff    	mov    -0x284(%rbp),%eax
    7721:	48 63 d0             	movslq %eax,%rdx
    7724:	48 8b 85 90 fd ff ff 	mov    -0x270(%rbp),%rax
    772b:	48 01 d0             	add    %rdx,%rax
    772e:	0f b6 00             	movzbl (%rax),%eax
    7731:	0f b6 c0             	movzbl %al,%eax
    7734:	83 e8 30             	sub    $0x30,%eax
    7737:	83 f8 09             	cmp    $0x9,%eax
    773a:	76 09                	jbe    7745 <_Z13listProcessesB5cxx11v+0xa9>
    773c:	c6 85 77 fd ff ff 00 	movb   $0x0,-0x289(%rbp)
    7743:	eb 21                	jmp    7766 <_Z13listProcessesB5cxx11v+0xca>
    7745:	83 85 7c fd ff ff 01 	addl   $0x1,-0x284(%rbp)
    774c:	8b 85 7c fd ff ff    	mov    -0x284(%rbp),%eax
    7752:	48 63 d0             	movslq %eax,%rdx
    7755:	48 8b 85 90 fd ff ff 	mov    -0x270(%rbp),%rax
    775c:	48 01 d0             	add    %rdx,%rax
    775f:	0f b6 00             	movzbl (%rax),%eax
    7762:	84 c0                	test   %al,%al
    7764:	75 b5                	jne    771b <_Z13listProcessesB5cxx11v+0x7f>
    7766:	0f b6 85 77 fd ff ff 	movzbl -0x289(%rbp),%eax
    776d:	83 f0 01             	xor    $0x1,%eax
    7770:	84 c0                	test   %al,%al
    7772:	0f 85 61 01 00 00    	jne    78d9 <_Z13listProcessesB5cxx11v+0x23d>
    7778:	48 8d 85 78 fd ff ff 	lea    -0x288(%rbp),%rax
    777f:	48 89 85 98 fd ff ff 	mov    %rax,-0x268(%rbp)
    7786:	90                   	nop
    7787:	90                   	nop
    7788:	48 8d 95 78 fd ff ff 	lea    -0x288(%rbp),%rdx
    778f:	48 8d 0d b8 1c 00 00 	lea    0x1cb8(%rip),%rcx        # 944e <_IO_stdin_used+0x44e>
    7796:	48 8d 85 c0 fd ff ff 	lea    -0x240(%rbp),%rax
    779d:	48 89 ce             	mov    %rcx,%rsi
    77a0:	48 89 c7             	mov    %rax,%rdi
    77a3:	e8 4c ca ff ff       	call   41f4 <_ZNSt7__cxx1112basic_stringIcSt11char_traitsIcESaIcEEC1IS3_EEPKcRKS3_>
    77a8:	48 8d 85 e0 fd ff ff 	lea    -0x220(%rbp),%rax
    77af:	48 8b 95 90 fd ff ff 	mov    -0x270(%rbp),%rdx
    77b6:	48 8d 8d c0 fd ff ff 	lea    -0x240(%rbp),%rcx
    77bd:	48 89 ce             	mov    %rcx,%rsi
    77c0:	48 89 c7             	mov    %rax,%rdi
    77c3:	e8 40 cc ff ff       	call   4408 <_ZStplIcSt11char_traitsIcESaIcEENSt7__cxx1112basic_stringIT_T0_T1_EEOS8_PKS5_>
    77c8:	48 8d 85 a0 fd ff ff 	lea    -0x260(%rbp),%rax
    77cf:	48 8d 15 7f 1c 00 00 	lea    0x1c7f(%rip),%rdx        # 9455 <_IO_stdin_used+0x455>
    77d6:	48 8d 8d e0 fd ff ff 	lea    -0x220(%rbp),%rcx
    77dd:	48 89 ce             	mov    %rcx,%rsi
    77e0:	48 89 c7             	mov    %rax,%rdi
    77e3:	e8 20 cc ff ff       	call   4408 <_ZStplIcSt11char_traitsIcESaIcEENSt7__cxx1112basic_stringIT_T0_T1_EEOS8_PKS5_>
    77e8:	48 8d 85 e0 fd ff ff 	lea    -0x220(%rbp),%rax
    77ef:	48 89 c7             	mov    %rax,%rdi
    77f2:	e8 b5 c8 ff ff       	call   40ac <_ZNSt7__cxx1112basic_stringIcSt11char_traitsIcESaIcEED1Ev>
    77f7:	48 8d 85 c0 fd ff ff 	lea    -0x240(%rbp),%rax
    77fe:	48 89 c7             	mov    %rax,%rdi
    7801:	e8 a6 c8 ff ff       	call   40ac <_ZNSt7__cxx1112basic_stringIcSt11char_traitsIcESaIcEED1Ev>
    7806:	48 8d 85 78 fd ff ff 	lea    -0x288(%rbp),%rax
    780d:	48 89 c7             	mov    %rax,%rdi
    7810:	e8 79 d0 ff ff       	call   488e <_ZNSt15__new_allocatorIcED1Ev>
    7815:	90                   	nop
    7816:	48 8d 8d a0 fd ff ff 	lea    -0x260(%rbp),%rcx
    781d:	48 8d 85 e0 fd ff ff 	lea    -0x220(%rbp),%rax
    7824:	ba 08 00 00 00       	mov    $0x8,%edx
    7829:	48 89 ce             	mov    %rcx,%rsi
    782c:	48 89 c7             	mov    %rax,%rdi
    782f:	e8 4c bb ff ff       	call   3380 <_ZNSt14basic_ifstreamIcSt11char_traitsIcEEC1ERKNSt7__cxx1112basic_stringIcS1_SaIcEEESt13_Ios_Openmode@plt>
    7834:	48 8d 85 e0 fd ff ff 	lea    -0x220(%rbp),%rax
    783b:	48 05 00 01 00 00    	add    $0x100,%rax
    7841:	48 89 c7             	mov    %rax,%rdi
    7844:	e8 77 b9 ff ff       	call   31c0 <_ZNKSt9basic_iosIcSt11char_traitsIcEEcvbEv@plt>
    7849:	84 c0                	test   %al,%al
    784b:	74 6c                	je     78b9 <_Z13listProcessesB5cxx11v+0x21d>
    784d:	48 8d 85 c0 fd ff ff 	lea    -0x240(%rbp),%rax
    7854:	48 89 c7             	mov    %rax,%rdi
    7857:	e8 24 f5 ff ff       	call   6d80 <_ZNSt7__cxx1112basic_stringIcSt11char_traitsIcESaIcEEC1Ev>
    785c:	48 8d 95 c0 fd ff ff 	lea    -0x240(%rbp),%rdx
    7863:	48 8d 85 e0 fd ff ff 	lea    -0x220(%rbp),%rax
    786a:	48 89 d6             	mov    %rdx,%rsi
    786d:	48 89 c7             	mov    %rax,%rdi
    7870:	e8 9b b9 ff ff       	call   3210 <_ZSt7getlineIcSt11char_traitsIcESaIcEERSt13basic_istreamIT_T0_ES7_RNSt7__cxx1112basic_stringIS4_S5_T1_EE@plt>
    7875:	48 8b 85 90 fd ff ff 	mov    -0x270(%rbp),%rax
    787c:	48 89 c7             	mov    %rax,%rdi
    787f:	e8 1c b9 ff ff       	call   31a0 <atoi@plt>
    7884:	89 85 78 fd ff ff    	mov    %eax,-0x288(%rbp)
    788a:	48 8d 95 c0 fd ff ff 	lea    -0x240(%rbp),%rdx
    7891:	48 8d 8d 78 fd ff ff 	lea    -0x288(%rbp),%rcx
    7898:	48 8b 85 68 fd ff ff 	mov    -0x298(%rbp),%rax
    789f:	48 89 ce             	mov    %rcx,%rsi
    78a2:	48 89 c7             	mov    %rax,%rdi
    78a5:	e8 a6 01 00 00       	call   7a50 <_ZNSt6vectorISt4pairIiNSt7__cxx1112basic_stringIcSt11char_traitsIcESaIcEEEESaIS7_EE12emplace_backIJiRS6_EEERS7_DpOT_>
    78aa:	48 8d 85 c0 fd ff ff 	lea    -0x240(%rbp),%rax
    78b1:	48 89 c7             	mov    %rax,%rdi
    78b4:	e8 f3 c7 ff ff       	call   40ac <_ZNSt7__cxx1112basic_stringIcSt11char_traitsIcESaIcEED1Ev>
    78b9:	48 8d 85 e0 fd ff ff 	lea    -0x220(%rbp),%rax
    78c0:	48 89 c7             	mov    %rax,%rdi
    78c3:	e8 78 b7 ff ff       	call   3040 <_ZNSt14basic_ifstreamIcSt11char_traitsIcEED1Ev@plt>
    78c8:	48 8d 85 a0 fd ff ff 	lea    -0x260(%rbp),%rax
    78cf:	48 89 c7             	mov    %rax,%rdi
    78d2:	e8 d5 c7 ff ff       	call   40ac <_ZNSt7__cxx1112basic_stringIcSt11char_traitsIcESaIcEED1Ev>
    78d7:	eb 01                	jmp    78da <_Z13listProcessesB5cxx11v+0x23e>
    78d9:	90                   	nop
    78da:	48 8b 85 80 fd ff ff 	mov    -0x280(%rbp),%rax
    78e1:	48 89 c7             	mov    %rax,%rdi
    78e4:	e8 d7 b9 ff ff       	call   32c0 <readdir@plt>
    78e9:	48 89 85 88 fd ff ff 	mov    %rax,-0x278(%rbp)
    78f0:	48 83 bd 88 fd ff ff 	cmpq   $0x0,-0x278(%rbp)
    78f7:	00 
    78f8:	0f 95 c0             	setne  %al
    78fb:	84 c0                	test   %al,%al
    78fd:	0f 85 f3 fd ff ff    	jne    76f6 <_Z13listProcessesB5cxx11v+0x5a>
    7903:	48 8b 85 80 fd ff ff 	mov    -0x280(%rbp),%rax
    790a:	48 89 c7             	mov    %rax,%rdi
    790d:	e8 2e b9 ff ff       	call   3240 <closedir@plt>
    7912:	eb 01                	jmp    7915 <_Z13listProcessesB5cxx11v+0x279>
    7914:	90                   	nop
    7915:	48 8b 45 e8          	mov    -0x18(%rbp),%rax
    7919:	64 48 2b 04 25 28 00 	sub    %fs:0x28,%rax
    7920:	00 00 
    7922:	0f 84 b4 00 00 00    	je     79dc <_Z13listProcessesB5cxx11v+0x340>
    7928:	e9 aa 00 00 00       	jmp    79d7 <_Z13listProcessesB5cxx11v+0x33b>
    792d:	48 89 c3             	mov    %rax,%rbx
    7930:	48 8d 85 e0 fd ff ff 	lea    -0x220(%rbp),%rax
    7937:	48 89 c7             	mov    %rax,%rdi
    793a:	e8 6d c7 ff ff       	call   40ac <_ZNSt7__cxx1112basic_stringIcSt11char_traitsIcESaIcEED1Ev>
    793f:	eb 03                	jmp    7944 <_Z13listProcessesB5cxx11v+0x2a8>
    7941:	48 89 c3             	mov    %rax,%rbx
    7944:	48 8d 85 c0 fd ff ff 	lea    -0x240(%rbp),%rax
    794b:	48 89 c7             	mov    %rax,%rdi
    794e:	e8 59 c7 ff ff       	call   40ac <_ZNSt7__cxx1112basic_stringIcSt11char_traitsIcESaIcEED1Ev>
    7953:	eb 03                	jmp    7958 <_Z13listProcessesB5cxx11v+0x2bc>
    7955:	48 89 c3             	mov    %rax,%rbx
    7958:	48 8d 85 78 fd ff ff 	lea    -0x288(%rbp),%rax
    795f:	48 89 c7             	mov    %rax,%rdi
    7962:	e8 27 cf ff ff       	call   488e <_ZNSt15__new_allocatorIcED1Ev>
    7967:	90                   	nop
    7968:	eb 3f                	jmp    79a9 <_Z13listProcessesB5cxx11v+0x30d>
    796a:	48 89 c3             	mov    %rax,%rbx
    796d:	48 8d 85 c0 fd ff ff 	lea    -0x240(%rbp),%rax
    7974:	48 89 c7             	mov    %rax,%rdi
    7977:	e8 30 c7 ff ff       	call   40ac <_ZNSt7__cxx1112basic_stringIcSt11char_traitsIcESaIcEED1Ev>
    797c:	eb 03                	jmp    7981 <_Z13listProcessesB5cxx11v+0x2e5>
    797e:	48 89 c3             	mov    %rax,%rbx
    7981:	48 8d 85 e0 fd ff ff 	lea    -0x220(%rbp),%rax
    7988:	48 89 c7             	mov    %rax,%rdi
    798b:	e8 b0 b6 ff ff       	call   3040 <_ZNSt14basic_ifstreamIcSt11char_traitsIcEED1Ev@plt>
    7990:	eb 03                	jmp    7995 <_Z13listProcessesB5cxx11v+0x2f9>
    7992:	48 89 c3             	mov    %rax,%rbx
    7995:	48 8d 85 a0 fd ff ff 	lea    -0x260(%rbp),%rax
    799c:	48 89 c7             	mov    %rax,%rdi
    799f:	e8 08 c7 ff ff       	call   40ac <_ZNSt7__cxx1112basic_stringIcSt11char_traitsIcESaIcEED1Ev>
    79a4:	eb 03                	jmp    79a9 <_Z13listProcessesB5cxx11v+0x30d>
    79a6:	48 89 c3             	mov    %rax,%rbx
    79a9:	48 8b 85 68 fd ff ff 	mov    -0x298(%rbp),%rax
    79b0:	48 89 c7             	mov    %rax,%rdi
    79b3:	e8 d8 ca ff ff       	call   4490 <_ZNSt6vectorISt4pairIiNSt7__cxx1112basic_stringIcSt11char_traitsIcESaIcEEEESaIS7_EED1Ev>
    79b8:	48 89 d8             	mov    %rbx,%rax
    79bb:	48 8b 55 e8          	mov    -0x18(%rbp),%rdx
    79bf:	64 48 2b 14 25 28 00 	sub    %fs:0x28,%rdx
    79c6:	00 00 
    79c8:	74 05                	je     79cf <_Z13listProcessesB5cxx11v+0x333>
    79ca:	e8 91 b7 ff ff       	call   3160 <__stack_chk_fail@plt>
    79cf:	48 89 c7             	mov    %rax,%rdi
    79d2:	e8 a9 b8 ff ff       	call   3280 <_Unwind_Resume@plt>
    79d7:	e8 84 b7 ff ff       	call   3160 <__stack_chk_fail@plt>
    79dc:	48 8b 85 68 fd ff ff 	mov    -0x298(%rbp),%rax
    79e3:	48 8b 5d f8          	mov    -0x8(%rbp),%rbx
    79e7:	c9                   	leave
    79e8:	c3                   	ret
    79e9:	90                   	nop

00000000000079ea <_ZNSt12_Vector_baseISt4pairIiNSt7__cxx1112basic_stringIcSt11char_traitsIcESaIcEEEESaIS7_EEC1Ev>:
    79ea:	55                   	push   %rbp
    79eb:	48 89 e5             	mov    %rsp,%rbp
    79ee:	48 83 ec 10          	sub    $0x10,%rsp
    79f2:	48 89 7d f8          	mov    %rdi,-0x8(%rbp)
    79f6:	48 8b 45 f8          	mov    -0x8(%rbp),%rax
    79fa:	48 89 c7             	mov    %rax,%rdi
    79fd:	e8 20 00 00 00       	call   7a22 <_ZNSt12_Vector_baseISt4pairIiNSt7__cxx1112basic_stringIcSt11char_traitsIcESaIcEEEESaIS7_EE12_Vector_implC1Ev>
    7a02:	90                   	nop
    7a03:	c9                   	leave
    7a04:	c3                   	ret
    7a05:	90                   	nop

0000000000007a06 <_ZNSt6vectorISt4pairIiNSt7__cxx1112basic_stringIcSt11char_traitsIcESaIcEEEESaIS7_EEC1Ev>:
    7a06:	55                   	push   %rbp
    7a07:	48 89 e5             	mov    %rsp,%rbp
    7a0a:	48 83 ec 10          	sub    $0x10,%rsp
    7a0e:	48 89 7d f8          	mov    %rdi,-0x8(%rbp)
    7a12:	48 8b 45 f8          	mov    -0x8(%rbp),%rax
    7a16:	48 89 c7             	mov    %rax,%rdi
    7a19:	e8 cc ff ff ff       	call   79ea <_ZNSt12_Vector_baseISt4pairIiNSt7__cxx1112basic_stringIcSt11char_traitsIcESaIcEEEESaIS7_EEC1Ev>
    7a1e:	90                   	nop
    7a1f:	c9                   	leave
    7a20:	c3                   	ret
    7a21:	90                   	nop

0000000000007a22 <_ZNSt12_Vector_baseISt4pairIiNSt7__cxx1112basic_stringIcSt11char_traitsIcESaIcEEEESaIS7_EE12_Vector_implC1Ev>:
    7a22:	55                   	push   %rbp
    7a23:	48 89 e5             	mov    %rsp,%rbp
    7a26:	48 83 ec 20          	sub    $0x20,%rsp
    7a2a:	48 89 7d e8          	mov    %rdi,-0x18(%rbp)
    7a2e:	48 8b 45 e8          	mov    -0x18(%rbp),%rax
    7a32:	48 89 45 f0          	mov    %rax,-0x10(%rbp)
    7a36:	48 8b 45 f0          	mov    -0x10(%rbp),%rax
    7a3a:	48 89 45 f8          	mov    %rax,-0x8(%rbp)
    7a3e:	90                   	nop
    7a3f:	90                   	nop
    7a40:	48 8b 45 e8          	mov    -0x18(%rbp),%rax
    7a44:	48 89 c7             	mov    %rax,%rdi
    7a47:	e8 ae 01 00 00       	call   7bfa <_ZNSt12_Vector_baseISt4pairIiNSt7__cxx1112basic_stringIcSt11char_traitsIcESaIcEEEESaIS7_EE17_Vector_impl_dataC1Ev>
    7a4c:	90                   	nop
    7a4d:	c9                   	leave
    7a4e:	c3                   	ret
    7a4f:	90                   	nop

0000000000007a50 <_ZNSt6vectorISt4pairIiNSt7__cxx1112basic_stringIcSt11char_traitsIcESaIcEEEESaIS7_EE12emplace_backIJiRS6_EEERS7_DpOT_>:
    7a50:	55                   	push   %rbp
    7a51:	48 89 e5             	mov    %rsp,%rbp
    7a54:	41 56                	push   %r14
    7a56:	41 55                	push   %r13
    7a58:	41 54                	push   %r12
    7a5a:	53                   	push   %rbx
    7a5b:	48 81 ec a0 00 00 00 	sub    $0xa0,%rsp
    7a62:	48 89 bd 58 ff ff ff 	mov    %rdi,-0xa8(%rbp)
    7a69:	48 89 b5 50 ff ff ff 	mov    %rsi,-0xb0(%rbp)
    7a70:	48 89 95 48 ff ff ff 	mov    %rdx,-0xb8(%rbp)
    7a77:	48 8b 85 58 ff ff ff 	mov    -0xa8(%rbp),%rax
    7a7e:	48 8b 50 08          	mov    0x8(%rax),%rdx
    7a82:	48 8b 85 58 ff ff ff 	mov    -0xa8(%rbp),%rax
    7a89:	48 8b 40 10          	mov    0x10(%rax),%rax
    7a8d:	48 39 c2             	cmp    %rax,%rdx
    7a90:	0f 84 15 01 00 00    	je     7bab <_ZNSt6vectorISt4pairIiNSt7__cxx1112basic_stringIcSt11char_traitsIcESaIcEEEESaIS7_EE12emplace_backIJiRS6_EEERS7_DpOT_+0x15b>
    7a96:	48 8b 85 48 ff ff ff 	mov    -0xb8(%rbp),%rax
    7a9d:	48 89 45 c8          	mov    %rax,-0x38(%rbp)
    7aa1:	48 8b 45 c8          	mov    -0x38(%rbp),%rax
    7aa5:	48 8b 95 50 ff ff ff 	mov    -0xb0(%rbp),%rdx
    7aac:	48 89 55 c0          	mov    %rdx,-0x40(%rbp)
    7ab0:	48 8b 55 c0          	mov    -0x40(%rbp),%rdx
    7ab4:	48 8b 8d 58 ff ff ff 	mov    -0xa8(%rbp),%rcx
    7abb:	48 8b 49 08          	mov    0x8(%rcx),%rcx
    7abf:	48 8b b5 58 ff ff ff 	mov    -0xa8(%rbp),%rsi
    7ac6:	48 89 b5 60 ff ff ff 	mov    %rsi,-0xa0(%rbp)
    7acd:	48 89 8d 68 ff ff ff 	mov    %rcx,-0x98(%rbp)
    7ad4:	48 89 95 70 ff ff ff 	mov    %rdx,-0x90(%rbp)
    7adb:	48 89 85 78 ff ff ff 	mov    %rax,-0x88(%rbp)
    7ae2:	48 8b 85 78 ff ff ff 	mov    -0x88(%rbp),%rax
    7ae9:	48 89 45 80          	mov    %rax,-0x80(%rbp)
    7aed:	48 8b 45 80          	mov    -0x80(%rbp),%rax
    7af1:	48 8b 95 70 ff ff ff 	mov    -0x90(%rbp),%rdx
    7af8:	48 89 55 88          	mov    %rdx,-0x78(%rbp)
    7afc:	48 8b 55 88          	mov    -0x78(%rbp),%rdx
    7b00:	48 8b 8d 68 ff ff ff 	mov    -0x98(%rbp),%rcx
    7b07:	48 89 4d 90          	mov    %rcx,-0x70(%rbp)
    7b0b:	48 89 55 98          	mov    %rdx,-0x68(%rbp)
    7b0f:	48 89 45 a0          	mov    %rax,-0x60(%rbp)
    7b13:	48 8b 85 60 ff ff ff 	mov    -0xa0(%rbp),%rax
    7b1a:	48 89 45 a8          	mov    %rax,-0x58(%rbp)
    7b1e:	48 8b 5d 90          	mov    -0x70(%rbp),%rbx
    7b22:	48 89 de             	mov    %rbx,%rsi
    7b25:	bf 28 00 00 00       	mov    $0x28,%edi
    7b2a:	e8 f9 dc ff ff       	call   5828 <_ZnwmPv>
    7b2f:	49 89 c4             	mov    %rax,%r12
    7b32:	41 be 01 00 00 00    	mov    $0x1,%r14d
    7b38:	48 8b 45 a0          	mov    -0x60(%rbp),%rax
    7b3c:	48 89 45 b0          	mov    %rax,-0x50(%rbp)
    7b40:	48 8b 55 b0          	mov    -0x50(%rbp),%rdx
    7b44:	48 8b 45 98          	mov    -0x68(%rbp),%rax
    7b48:	48 89 45 b8          	mov    %rax,-0x48(%rbp)
    7b4c:	48 8b 45 b8          	mov    -0x48(%rbp),%rax
    7b50:	48 89 c6             	mov    %rax,%rsi
    7b53:	4c 89 e7             	mov    %r12,%rdi
    7b56:	e8 79 07 00 00       	call   82d4 <_ZNSt4pairIiNSt7__cxx1112basic_stringIcSt11char_traitsIcESaIcEEEEC1IiRS5_Lb1EEEOT_OT0_>
    7b5b:	b8 00 00 00 00       	mov    $0x0,%eax
    7b60:	84 c0                	test   %al,%al
    7b62:	74 0b                	je     7b6f <_ZNSt6vectorISt4pairIiNSt7__cxx1112basic_stringIcSt11char_traitsIcESaIcEEEESaIS7_EE12emplace_backIJiRS6_EEERS7_DpOT_+0x11f>
    7b64:	48 89 de             	mov    %rbx,%rsi
    7b67:	4c 89 e7             	mov    %r12,%rdi
    7b6a:	e8 cb dc ff ff       	call   583a <_ZdlPvS_>
    7b6f:	90                   	nop
    7b70:	90                   	nop
    7b71:	48 8b 85 58 ff ff ff 	mov    -0xa8(%rbp),%rax
    7b78:	48 8b 40 08          	mov    0x8(%rax),%rax
    7b7c:	48 8d 50 28          	lea    0x28(%rax),%rdx
    7b80:	48 8b 85 58 ff ff ff 	mov    -0xa8(%rbp),%rax
    7b87:	48 89 50 08          	mov    %rdx,0x8(%rax)
    7b8b:	eb 4e                	jmp    7bdb <_ZNSt6vectorISt4pairIiNSt7__cxx1112basic_stringIcSt11char_traitsIcESaIcEEEESaIS7_EE12emplace_backIJiRS6_EEERS7_DpOT_+0x18b>
    7b8d:	49 89 c5             	mov    %rax,%r13
    7b90:	45 84 f6             	test   %r14b,%r14b
    7b93:	74 0b                	je     7ba0 <_ZNSt6vectorISt4pairIiNSt7__cxx1112basic_stringIcSt11char_traitsIcESaIcEEEESaIS7_EE12emplace_backIJiRS6_EEERS7_DpOT_+0x150>
    7b95:	48 89 de             	mov    %rbx,%rsi
    7b98:	4c 89 e7             	mov    %r12,%rdi
    7b9b:	e8 9a dc ff ff       	call   583a <_ZdlPvS_>
    7ba0:	4c 89 e8             	mov    %r13,%rax
    7ba3:	48 89 c7             	mov    %rax,%rdi
    7ba6:	e8 d5 b6 ff ff       	call   3280 <_Unwind_Resume@plt>
    7bab:	48 8b 85 48 ff ff ff 	mov    -0xb8(%rbp),%rax
    7bb2:	48 89 45 d8          	mov    %rax,-0x28(%rbp)
    7bb6:	48 8b 55 d8          	mov    -0x28(%rbp),%rdx
    7bba:	48 8b 85 50 ff ff ff 	mov    -0xb0(%rbp),%rax
    7bc1:	48 89 45 d0          	mov    %rax,-0x30(%rbp)
    7bc5:	48 8b 4d d0          	mov    -0x30(%rbp),%rcx
    7bc9:	48 8b 85 58 ff ff ff 	mov    -0xa8(%rbp),%rax
    7bd0:	48 89 ce             	mov    %rcx,%rsi
    7bd3:	48 89 c7             	mov    %rax,%rdi
    7bd6:	e8 4d 00 00 00       	call   7c28 <_ZNSt6vectorISt4pairIiNSt7__cxx1112basic_stringIcSt11char_traitsIcESaIcEEEESaIS7_EE17_M_realloc_appendIJiRS6_EEEvDpOT_>
    7bdb:	48 8b 85 58 ff ff ff 	mov    -0xa8(%rbp),%rax
    7be2:	48 89 c7             	mov    %rax,%rdi
    7be5:	e8 c6 03 00 00       	call   7fb0 <_ZNSt6vectorISt4pairIiNSt7__cxx1112basic_stringIcSt11char_traitsIcESaIcEEEESaIS7_EE4backEv>
    7bea:	48 81 c4 a0 00 00 00 	add    $0xa0,%rsp
    7bf1:	5b                   	pop    %rbx
    7bf2:	41 5c                	pop    %r12
    7bf4:	41 5d                	pop    %r13
    7bf6:	41 5e                	pop    %r14
    7bf8:	5d                   	pop    %rbp
    7bf9:	c3                   	ret

0000000000007bfa <_ZNSt12_Vector_baseISt4pairIiNSt7__cxx1112basic_stringIcSt11char_traitsIcESaIcEEEESaIS7_EE17_Vector_impl_dataC1Ev>:
    7bfa:	55                   	push   %rbp
    7bfb:	48 89 e5             	mov    %rsp,%rbp
    7bfe:	48 89 7d f8          	mov    %rdi,-0x8(%rbp)
    7c02:	48 8b 45 f8          	mov    -0x8(%rbp),%rax
    7c06:	48 c7 00 00 00 00 00 	movq   $0x0,(%rax)
    7c0d:	48 8b 45 f8          	mov    -0x8(%rbp),%rax
    7c11:	48 c7 40 08 00 00 00 	movq   $0x0,0x8(%rax)
    7c18:	00 
    7c19:	48 8b 45 f8          	mov    -0x8(%rbp),%rax
    7c1d:	48 c7 40 10 00 00 00 	movq   $0x0,0x10(%rax)
    7c24:	00 
    7c25:	90                   	nop
    7c26:	5d                   	pop    %rbp
    7c27:	c3                   	ret

0000000000007c28 <_ZNSt6vectorISt4pairIiNSt7__cxx1112basic_stringIcSt11char_traitsIcESaIcEEEESaIS7_EE17_M_realloc_appendIJiRS6_EEEvDpOT_>:
    7c28:	55                   	push   %rbp
    7c29:	48 89 e5             	mov    %rsp,%rbp
    7c2c:	41 56                	push   %r14
    7c2e:	41 55                	push   %r13
    7c30:	41 54                	push   %r12
    7c32:	53                   	push   %rbx
    7c33:	48 81 ec 00 01 00 00 	sub    $0x100,%rsp
    7c3a:	48 89 bd f8 fe ff ff 	mov    %rdi,-0x108(%rbp)
    7c41:	48 89 b5 f0 fe ff ff 	mov    %rsi,-0x110(%rbp)
    7c48:	48 89 95 e8 fe ff ff 	mov    %rdx,-0x118(%rbp)
    7c4f:	64 48 8b 04 25 28 00 	mov    %fs:0x28,%rax
    7c56:	00 00 
    7c58:	48 89 45 d8          	mov    %rax,-0x28(%rbp)
    7c5c:	31 c0                	xor    %eax,%eax
    7c5e:	48 8d 15 42 18 00 00 	lea    0x1842(%rip),%rdx        # 94a7 <_IO_stdin_used+0x4a7>
    7c65:	48 8b 85 f8 fe ff ff 	mov    -0x108(%rbp),%rax
    7c6c:	be 01 00 00 00       	mov    $0x1,%esi
    7c71:	48 89 c7             	mov    %rax,%rdi
    7c74:	e8 f1 03 00 00       	call   806a <_ZNKSt6vectorISt4pairIiNSt7__cxx1112basic_stringIcSt11char_traitsIcESaIcEEEESaIS7_EE12_M_check_lenEmPKc>
    7c79:	48 89 85 08 ff ff ff 	mov    %rax,-0xf8(%rbp)
    7c80:	48 83 bd 08 ff ff ff 	cmpq   $0x0,-0xf8(%rbp)
    7c87:	00 
    7c88:	48 8b 85 f8 fe ff ff 	mov    -0x108(%rbp),%rax
    7c8f:	48 8b 00             	mov    (%rax),%rax
    7c92:	48 89 85 10 ff ff ff 	mov    %rax,-0xf0(%rbp)
    7c99:	48 8b 85 f8 fe ff ff 	mov    -0x108(%rbp),%rax
    7ca0:	48 8b 40 08          	mov    0x8(%rax),%rax
    7ca4:	48 89 85 18 ff ff ff 	mov    %rax,-0xe8(%rbp)
    7cab:	48 8b 85 f8 fe ff ff 	mov    -0x108(%rbp),%rax
    7cb2:	48 89 c7             	mov    %rax,%rdi
    7cb5:	e8 2c c8 ff ff       	call   44e6 <_ZNSt6vectorISt4pairIiNSt7__cxx1112basic_stringIcSt11char_traitsIcESaIcEEEESaIS7_EE5beginEv>
    7cba:	48 89 45 c0          	mov    %rax,-0x40(%rbp)
    7cbe:	48 8b 85 f8 fe ff ff 	mov    -0x108(%rbp),%rax
    7cc5:	48 89 c7             	mov    %rax,%rdi
    7cc8:	e8 63 c8 ff ff       	call   4530 <_ZNSt6vectorISt4pairIiNSt7__cxx1112basic_stringIcSt11char_traitsIcESaIcEEEESaIS7_EE3endEv>
    7ccd:	48 89 85 00 ff ff ff 	mov    %rax,-0x100(%rbp)
    7cd4:	48 8d 85 00 ff ff ff 	lea    -0x100(%rbp),%rax
    7cdb:	48 89 45 b0          	mov    %rax,-0x50(%rbp)
    7cdf:	48 8b 45 b0          	mov    -0x50(%rbp),%rax
    7ce3:	48 8b 10             	mov    (%rax),%rdx
    7ce6:	48 8d 45 c0          	lea    -0x40(%rbp),%rax
    7cea:	48 89 45 b8          	mov    %rax,-0x48(%rbp)
    7cee:	48 8b 45 b8          	mov    -0x48(%rbp),%rax
    7cf2:	48 8b 00             	mov    (%rax),%rax
    7cf5:	48 29 c2             	sub    %rax,%rdx
    7cf8:	48 c1 fa 03          	sar    $0x3,%rdx
    7cfc:	48 b8 cd cc cc cc cc 	movabs $0xcccccccccccccccd,%rax
    7d03:	cc cc cc 
    7d06:	48 0f af c2          	imul   %rdx,%rax
    7d0a:	48 89 85 20 ff ff ff 	mov    %rax,-0xe0(%rbp)
    7d11:	48 8b 85 f8 fe ff ff 	mov    -0x108(%rbp),%rax
    7d18:	48 8b 95 08 ff ff ff 	mov    -0xf8(%rbp),%rdx
    7d1f:	48 89 d6             	mov    %rdx,%rsi
    7d22:	48 89 c7             	mov    %rax,%rdi
    7d25:	e8 40 04 00 00       	call   816a <_ZNSt12_Vector_baseISt4pairIiNSt7__cxx1112basic_stringIcSt11char_traitsIcESaIcEEEESaIS7_EE11_M_allocateEm>
    7d2a:	48 89 85 28 ff ff ff 	mov    %rax,-0xd8(%rbp)
    7d31:	48 8b 85 28 ff ff ff 	mov    -0xd8(%rbp),%rax
    7d38:	48 89 85 30 ff ff ff 	mov    %rax,-0xd0(%rbp)
    7d3f:	48 8b 8d f8 fe ff ff 	mov    -0x108(%rbp),%rcx
    7d46:	48 8b 95 08 ff ff ff 	mov    -0xf8(%rbp),%rdx
    7d4d:	48 8b b5 28 ff ff ff 	mov    -0xd8(%rbp),%rsi
    7d54:	48 8d 45 c0          	lea    -0x40(%rbp),%rax
    7d58:	48 89 c7             	mov    %rax,%rdi
    7d5b:	e8 54 04 00 00       	call   81b4 <_ZNSt6vectorISt4pairIiNSt7__cxx1112basic_stringIcSt11char_traitsIcESaIcEEEESaIS7_EE12_Guard_allocC1EPS7_mRSt12_Vector_baseIS7_S8_E>
    7d60:	48 8b 85 e8 fe ff ff 	mov    -0x118(%rbp),%rax
    7d67:	48 89 45 a8          	mov    %rax,-0x58(%rbp)
    7d6b:	48 8b 4d a8          	mov    -0x58(%rbp),%rcx
    7d6f:	48 8b 85 f0 fe ff ff 	mov    -0x110(%rbp),%rax
    7d76:	48 89 45 a0          	mov    %rax,-0x60(%rbp)
    7d7a:	48 8b 75 a0          	mov    -0x60(%rbp),%rsi
    7d7e:	48 8b 95 20 ff ff ff 	mov    -0xe0(%rbp),%rdx
    7d85:	48 89 d0             	mov    %rdx,%rax
    7d88:	48 c1 e0 02          	shl    $0x2,%rax
    7d8c:	48 01 d0             	add    %rdx,%rax
    7d8f:	48 c1 e0 03          	shl    $0x3,%rax
    7d93:	48 89 c2             	mov    %rax,%rdx
    7d96:	48 8b 85 28 ff ff ff 	mov    -0xd8(%rbp),%rax
    7d9d:	48 01 d0             	add    %rdx,%rax
    7da0:	48 89 45 98          	mov    %rax,-0x68(%rbp)
    7da4:	48 8b 45 98          	mov    -0x68(%rbp),%rax
    7da8:	48 8b 95 f8 fe ff ff 	mov    -0x108(%rbp),%rdx
    7daf:	48 89 95 38 ff ff ff 	mov    %rdx,-0xc8(%rbp)
    7db6:	48 89 85 40 ff ff ff 	mov    %rax,-0xc0(%rbp)
    7dbd:	48 89 b5 48 ff ff ff 	mov    %rsi,-0xb8(%rbp)
    7dc4:	48 89 8d 50 ff ff ff 	mov    %rcx,-0xb0(%rbp)
    7dcb:	48 8b 85 50 ff ff ff 	mov    -0xb0(%rbp),%rax
    7dd2:	48 89 85 58 ff ff ff 	mov    %rax,-0xa8(%rbp)
    7dd9:	48 8b 85 58 ff ff ff 	mov    -0xa8(%rbp),%rax
    7de0:	48 8b 95 48 ff ff ff 	mov    -0xb8(%rbp),%rdx
    7de7:	48 89 95 60 ff ff ff 	mov    %rdx,-0xa0(%rbp)
    7dee:	48 8b 95 60 ff ff ff 	mov    -0xa0(%rbp),%rdx
    7df5:	48 8b 8d 40 ff ff ff 	mov    -0xc0(%rbp),%rcx
    7dfc:	48 89 8d 68 ff ff ff 	mov    %rcx,-0x98(%rbp)
    7e03:	48 89 95 70 ff ff ff 	mov    %rdx,-0x90(%rbp)
    7e0a:	48 89 85 78 ff ff ff 	mov    %rax,-0x88(%rbp)
    7e11:	48 8b 85 38 ff ff ff 	mov    -0xc8(%rbp),%rax
    7e18:	48 89 45 80          	mov    %rax,-0x80(%rbp)
    7e1c:	48 8b 9d 68 ff ff ff 	mov    -0x98(%rbp),%rbx
    7e23:	48 89 de             	mov    %rbx,%rsi
    7e26:	bf 28 00 00 00       	mov    $0x28,%edi
    7e2b:	e8 f8 d9 ff ff       	call   5828 <_ZnwmPv>
    7e30:	49 89 c4             	mov    %rax,%r12
    7e33:	41 be 01 00 00 00    	mov    $0x1,%r14d
    7e39:	48 8b 85 78 ff ff ff 	mov    -0x88(%rbp),%rax
    7e40:	48 89 45 88          	mov    %rax,-0x78(%rbp)
    7e44:	48 8b 55 88          	mov    -0x78(%rbp),%rdx
    7e48:	48 8b 85 70 ff ff ff 	mov    -0x90(%rbp),%rax
    7e4f:	48 89 45 90          	mov    %rax,-0x70(%rbp)
    7e53:	48 8b 45 90          	mov    -0x70(%rbp),%rax
    7e57:	48 89 c6             	mov    %rax,%rsi
    7e5a:	4c 89 e7             	mov    %r12,%rdi
    7e5d:	e8 72 04 00 00       	call   82d4 <_ZNSt4pairIiNSt7__cxx1112basic_stringIcSt11char_traitsIcESaIcEEEEC1IiRS5_Lb1EEEOT_OT0_>
    7e62:	b8 00 00 00 00       	mov    $0x0,%eax
    7e67:	84 c0                	test   %al,%al
    7e69:	74 0b                	je     7e76 <_ZNSt6vectorISt4pairIiNSt7__cxx1112basic_stringIcSt11char_traitsIcESaIcEEEESaIS7_EE17_M_realloc_appendIJiRS6_EEEvDpOT_+0x24e>
    7e6b:	48 89 de             	mov    %rbx,%rsi
    7e6e:	4c 89 e7             	mov    %r12,%rdi
    7e71:	e8 c4 d9 ff ff       	call   583a <_ZdlPvS_>
    7e76:	90                   	nop
    7e77:	90                   	nop
    7e78:	48 8b 85 f8 fe ff ff 	mov    -0x108(%rbp),%rax
    7e7f:	48 89 c7             	mov    %rax,%rdi
    7e82:	e8 23 ce ff ff       	call   4caa <_ZNSt12_Vector_baseISt4pairIiNSt7__cxx1112basic_stringIcSt11char_traitsIcESaIcEEEESaIS7_EE19_M_get_Tp_allocatorEv>
    7e87:	48 89 c1             	mov    %rax,%rcx
    7e8a:	48 8b 95 28 ff ff ff 	mov    -0xd8(%rbp),%rdx
    7e91:	48 8b b5 18 ff ff ff 	mov    -0xe8(%rbp),%rsi
    7e98:	48 8b 85 10 ff ff ff 	mov    -0xf0(%rbp),%rax
    7e9f:	48 89 c7             	mov    %rax,%rdi
    7ea2:	e8 84 03 00 00       	call   822b <_ZNSt6vectorISt4pairIiNSt7__cxx1112basic_stringIcSt11char_traitsIcESaIcEEEESaIS7_EE11_S_relocateEPS7_SA_SA_RS8_>
    7ea7:	48 89 85 30 ff ff ff 	mov    %rax,-0xd0(%rbp)
    7eae:	48 83 85 30 ff ff ff 	addq   $0x28,-0xd0(%rbp)
    7eb5:	28 
    7eb6:	48 8b 85 10 ff ff ff 	mov    -0xf0(%rbp),%rax
    7ebd:	48 89 45 c0          	mov    %rax,-0x40(%rbp)
    7ec1:	48 8b 85 f8 fe ff ff 	mov    -0x108(%rbp),%rax
    7ec8:	48 8b 40 10          	mov    0x10(%rax),%rax
    7ecc:	48 2b 85 10 ff ff ff 	sub    -0xf0(%rbp),%rax
    7ed3:	48 c1 f8 03          	sar    $0x3,%rax
    7ed7:	48 89 c2             	mov    %rax,%rdx
    7eda:	48 b8 cd cc cc cc cc 	movabs $0xcccccccccccccccd,%rax
    7ee1:	cc cc cc 
    7ee4:	48 0f af c2          	imul   %rdx,%rax
    7ee8:	48 89 45 c8          	mov    %rax,-0x38(%rbp)
    7eec:	48 8d 45 c0          	lea    -0x40(%rbp),%rax
    7ef0:	48 89 c7             	mov    %rax,%rdi
    7ef3:	e8 f6 02 00 00       	call   81ee <_ZNSt6vectorISt4pairIiNSt7__cxx1112basic_stringIcSt11char_traitsIcESaIcEEEESaIS7_EE12_Guard_allocD1Ev>
    7ef8:	48 8b 85 f8 fe ff ff 	mov    -0x108(%rbp),%rax
    7eff:	48 8b 95 28 ff ff ff 	mov    -0xd8(%rbp),%rdx
    7f06:	48 89 10             	mov    %rdx,(%rax)
    7f09:	48 8b 85 f8 fe ff ff 	mov    -0x108(%rbp),%rax
    7f10:	48 8b 95 30 ff ff ff 	mov    -0xd0(%rbp),%rdx
    7f17:	48 89 50 08          	mov    %rdx,0x8(%rax)
    7f1b:	48 8b 95 08 ff ff ff 	mov    -0xf8(%rbp),%rdx
    7f22:	48 89 d0             	mov    %rdx,%rax
    7f25:	48 c1 e0 02          	shl    $0x2,%rax
    7f29:	48 01 d0             	add    %rdx,%rax
    7f2c:	48 c1 e0 03          	shl    $0x3,%rax
    7f30:	48 89 c2             	mov    %rax,%rdx
    7f33:	48 8b 85 28 ff ff ff 	mov    -0xd8(%rbp),%rax
    7f3a:	48 01 c2             	add    %rax,%rdx
    7f3d:	48 8b 85 f8 fe ff ff 	mov    -0x108(%rbp),%rax
    7f44:	48 89 50 10          	mov    %rdx,0x10(%rax)
    7f48:	90                   	nop
    7f49:	48 8b 45 d8          	mov    -0x28(%rbp),%rax
    7f4d:	64 48 2b 04 25 28 00 	sub    %fs:0x28,%rax
    7f54:	00 00 
    7f56:	74 48                	je     7fa0 <_ZNSt6vectorISt4pairIiNSt7__cxx1112basic_stringIcSt11char_traitsIcESaIcEEEESaIS7_EE17_M_realloc_appendIJiRS6_EEEvDpOT_+0x378>
    7f58:	eb 41                	jmp    7f9b <_ZNSt6vectorISt4pairIiNSt7__cxx1112basic_stringIcSt11char_traitsIcESaIcEEEESaIS7_EE17_M_realloc_appendIJiRS6_EEEvDpOT_+0x373>
    7f5a:	49 89 c5             	mov    %rax,%r13
    7f5d:	45 84 f6             	test   %r14b,%r14b
    7f60:	74 0b                	je     7f6d <_ZNSt6vectorISt4pairIiNSt7__cxx1112basic_stringIcSt11char_traitsIcESaIcEEEESaIS7_EE17_M_realloc_appendIJiRS6_EEEvDpOT_+0x345>
    7f62:	48 89 de             	mov    %rbx,%rsi
    7f65:	4c 89 e7             	mov    %r12,%rdi
    7f68:	e8 cd d8 ff ff       	call   583a <_ZdlPvS_>
    7f6d:	4c 89 eb             	mov    %r13,%rbx
    7f70:	48 8d 45 c0          	lea    -0x40(%rbp),%rax
    7f74:	48 89 c7             	mov    %rax,%rdi
    7f77:	e8 72 02 00 00       	call   81ee <_ZNSt6vectorISt4pairIiNSt7__cxx1112basic_stringIcSt11char_traitsIcESaIcEEEESaIS7_EE12_Guard_allocD1Ev>
    7f7c:	48 89 d8             	mov    %rbx,%rax
    7f7f:	48 8b 55 d8          	mov    -0x28(%rbp),%rdx
    7f83:	64 48 2b 14 25 28 00 	sub    %fs:0x28,%rdx
    7f8a:	00 00 
    7f8c:	74 05                	je     7f93 <_ZNSt6vectorISt4pairIiNSt7__cxx1112basic_stringIcSt11char_traitsIcESaIcEEEESaIS7_EE17_M_realloc_appendIJiRS6_EEEvDpOT_+0x36b>
    7f8e:	e8 cd b1 ff ff       	call   3160 <__stack_chk_fail@plt>
    7f93:	48 89 c7             	mov    %rax,%rdi
    7f96:	e8 e5 b2 ff ff       	call   3280 <_Unwind_Resume@plt>
    7f9b:	e8 c0 b1 ff ff       	call   3160 <__stack_chk_fail@plt>
    7fa0:	48 81 c4 00 01 00 00 	add    $0x100,%rsp
    7fa7:	5b                   	pop    %rbx
    7fa8:	41 5c                	pop    %r12
    7faa:	41 5d                	pop    %r13
    7fac:	41 5e                	pop    %r14
    7fae:	5d                   	pop    %rbp
    7faf:	c3                   	ret

0000000000007fb0 <_ZNSt6vectorISt4pairIiNSt7__cxx1112basic_stringIcSt11char_traitsIcESaIcEEEESaIS7_EE4backEv>:
    7fb0:	55                   	push   %rbp
    7fb1:	48 89 e5             	mov    %rsp,%rbp
    7fb4:	48 83 ec 40          	sub    $0x40,%rsp
    7fb8:	48 89 7d c8          	mov    %rdi,-0x38(%rbp)
    7fbc:	64 48 8b 04 25 28 00 	mov    %fs:0x28,%rax
    7fc3:	00 00 
    7fc5:	48 89 45 f8          	mov    %rax,-0x8(%rbp)
    7fc9:	31 c0                	xor    %eax,%eax
    7fcb:	48 8b 45 c8          	mov    -0x38(%rbp),%rax
    7fcf:	48 89 c7             	mov    %rax,%rdi
    7fd2:	e8 87 02 00 00       	call   825e <_ZNKSt6vectorISt4pairIiNSt7__cxx1112basic_stringIcSt11char_traitsIcESaIcEEEESaIS7_EE5emptyEv>
    7fd7:	0f b6 c0             	movzbl %al,%eax
    7fda:	48 85 c0             	test   %rax,%rax
    7fdd:	0f 95 c0             	setne  %al
    7fe0:	84 c0                	test   %al,%al
    7fe2:	74 22                	je     8006 <_ZNSt6vectorISt4pairIiNSt7__cxx1112basic_stringIcSt11char_traitsIcESaIcEEEESaIS7_EE4backEv+0x56>
    7fe4:	48 8d 0d d6 14 00 00 	lea    0x14d6(%rip),%rcx        # 94c1 <_IO_stdin_used+0x4c1>
    7feb:	48 8d 15 de 14 00 00 	lea    0x14de(%rip),%rdx        # 94d0 <_IO_stdin_used+0x4d0>
    7ff2:	48 8d 05 ef 15 00 00 	lea    0x15ef(%rip),%rax        # 95e8 <_IO_stdin_used+0x5e8>
    7ff9:	be 5a 05 00 00       	mov    $0x55a,%esi
    7ffe:	48 89 c7             	mov    %rax,%rdi
    8001:	e8 1a b1 ff ff       	call   3120 <_ZSt21__glibcxx_assert_failPKciS0_S0_@plt>
    8006:	48 8b 45 c8          	mov    -0x38(%rbp),%rax
    800a:	48 89 c7             	mov    %rax,%rdi
    800d:	e8 1e c5 ff ff       	call   4530 <_ZNSt6vectorISt4pairIiNSt7__cxx1112basic_stringIcSt11char_traitsIcESaIcEEEESaIS7_EE3endEv>
    8012:	48 89 45 d8          	mov    %rax,-0x28(%rbp)
    8016:	48 c7 45 f0 01 00 00 	movq   $0x1,-0x10(%rbp)
    801d:	00 
    801e:	48 8b 4d d8          	mov    -0x28(%rbp),%rcx
    8022:	48 8b 55 f0          	mov    -0x10(%rbp),%rdx
    8026:	48 89 d0             	mov    %rdx,%rax
    8029:	48 c1 e0 02          	shl    $0x2,%rax
    802d:	48 01 d0             	add    %rdx,%rax
    8030:	48 c1 e0 03          	shl    $0x3,%rax
    8034:	48 f7 d8             	neg    %rax
    8037:	48 01 c8             	add    %rcx,%rax
    803a:	48 89 45 e0          	mov    %rax,-0x20(%rbp)
    803e:	48 8b 45 e0          	mov    -0x20(%rbp),%rax
    8042:	48 89 45 e8          	mov    %rax,-0x18(%rbp)
    8046:	90                   	nop
    8047:	48 8b 45 e8          	mov    -0x18(%rbp),%rax
    804b:	48 89 45 e8          	mov    %rax,-0x18(%rbp)
    804f:	48 8b 45 e8          	mov    -0x18(%rbp),%rax
    8053:	48 8b 55 f8          	mov    -0x8(%rbp),%rdx
    8057:	64 48 2b 14 25 28 00 	sub    %fs:0x28,%rdx
    805e:	00 00 
    8060:	74 05                	je     8067 <_ZNSt6vectorISt4pairIiNSt7__cxx1112basic_stringIcSt11char_traitsIcESaIcEEEESaIS7_EE4backEv+0xb7>
    8062:	e8 f9 b0 ff ff       	call   3160 <__stack_chk_fail@plt>
    8067:	c9                   	leave
    8068:	c3                   	ret
    8069:	90                   	nop

000000000000806a <_ZNKSt6vectorISt4pairIiNSt7__cxx1112basic_stringIcSt11char_traitsIcESaIcEEEESaIS7_EE12_M_check_lenEmPKc>:
    806a:	55                   	push   %rbp
    806b:	48 89 e5             	mov    %rsp,%rbp
    806e:	53                   	push   %rbx
    806f:	48 83 ec 48          	sub    $0x48,%rsp
    8073:	48 89 7d c8          	mov    %rdi,-0x38(%rbp)
    8077:	48 89 75 c0          	mov    %rsi,-0x40(%rbp)
    807b:	48 89 55 b8          	mov    %rdx,-0x48(%rbp)
    807f:	64 48 8b 04 25 28 00 	mov    %fs:0x28,%rax
    8086:	00 00 
    8088:	48 89 45 e8          	mov    %rax,-0x18(%rbp)
    808c:	31 c0                	xor    %eax,%eax
    808e:	48 8b 45 c8          	mov    -0x38(%rbp),%rax
    8092:	48 89 c7             	mov    %rax,%rdi
    8095:	e8 84 02 00 00       	call   831e <_ZNKSt6vectorISt4pairIiNSt7__cxx1112basic_stringIcSt11char_traitsIcESaIcEEEESaIS7_EE8max_sizeEv>
    809a:	48 89 c3             	mov    %rax,%rbx
    809d:	48 8b 45 c8          	mov    -0x38(%rbp),%rax
    80a1:	48 89 c7             	mov    %rax,%rdi
    80a4:	e8 97 02 00 00       	call   8340 <_ZNKSt6vectorISt4pairIiNSt7__cxx1112basic_stringIcSt11char_traitsIcESaIcEEEESaIS7_EE4sizeEv>
    80a9:	48 29 c3             	sub    %rax,%rbx
    80ac:	48 89 da             	mov    %rbx,%rdx
    80af:	48 8b 45 c0          	mov    -0x40(%rbp),%rax
    80b3:	48 39 c2             	cmp    %rax,%rdx
    80b6:	0f 92 c0             	setb   %al
    80b9:	84 c0                	test   %al,%al
    80bb:	74 20                	je     80dd <_ZNKSt6vectorISt4pairIiNSt7__cxx1112basic_stringIcSt11char_traitsIcESaIcEEEESaIS7_EE12_M_check_lenEmPKc+0x73>
    80bd:	48 8b 45 e8          	mov    -0x18(%rbp),%rax
    80c1:	64 48 2b 04 25 28 00 	sub    %fs:0x28,%rax
    80c8:	00 00 
    80ca:	74 05                	je     80d1 <_ZNKSt6vectorISt4pairIiNSt7__cxx1112basic_stringIcSt11char_traitsIcESaIcEEEESaIS7_EE12_M_check_lenEmPKc+0x67>
    80cc:	e8 8f b0 ff ff       	call   3160 <__stack_chk_fail@plt>
    80d1:	48 8b 45 b8          	mov    -0x48(%rbp),%rax
    80d5:	48 89 c7             	mov    %rax,%rdi
    80d8:	e8 93 b1 ff ff       	call   3270 <_ZSt20__throw_length_errorPKc@plt>
    80dd:	48 8b 45 c8          	mov    -0x38(%rbp),%rax
    80e1:	48 89 c7             	mov    %rax,%rdi
    80e4:	e8 57 02 00 00       	call   8340 <_ZNKSt6vectorISt4pairIiNSt7__cxx1112basic_stringIcSt11char_traitsIcESaIcEEEESaIS7_EE4sizeEv>
    80e9:	48 89 c3             	mov    %rax,%rbx
    80ec:	48 8b 45 c8          	mov    -0x38(%rbp),%rax
    80f0:	48 89 c7             	mov    %rax,%rdi
    80f3:	e8 48 02 00 00       	call   8340 <_ZNKSt6vectorISt4pairIiNSt7__cxx1112basic_stringIcSt11char_traitsIcESaIcEEEESaIS7_EE4sizeEv>
    80f8:	48 89 45 d8          	mov    %rax,-0x28(%rbp)
    80fc:	48 8d 55 c0          	lea    -0x40(%rbp),%rdx
    8100:	48 8d 45 d8          	lea    -0x28(%rbp),%rax
    8104:	48 89 d6             	mov    %rdx,%rsi
    8107:	48 89 c7             	mov    %rax,%rdi
    810a:	e8 36 e7 ff ff       	call   6845 <_ZSt3maxImERKT_S2_S2_>
    810f:	48 8b 00             	mov    (%rax),%rax
    8112:	48 01 d8             	add    %rbx,%rax
    8115:	48 89 45 e0          	mov    %rax,-0x20(%rbp)
    8119:	48 8b 45 c8          	mov    -0x38(%rbp),%rax
    811d:	48 89 c7             	mov    %rax,%rdi
    8120:	e8 1b 02 00 00       	call   8340 <_ZNKSt6vectorISt4pairIiNSt7__cxx1112basic_stringIcSt11char_traitsIcESaIcEEEESaIS7_EE4sizeEv>
    8125:	48 39 45 e0          	cmp    %rax,-0x20(%rbp)
    8129:	72 12                	jb     813d <_ZNKSt6vectorISt4pairIiNSt7__cxx1112basic_stringIcSt11char_traitsIcESaIcEEEESaIS7_EE12_M_check_lenEmPKc+0xd3>
    812b:	48 8b 45 c8          	mov    -0x38(%rbp),%rax
    812f:	48 89 c7             	mov    %rax,%rdi
    8132:	e8 e7 01 00 00       	call   831e <_ZNKSt6vectorISt4pairIiNSt7__cxx1112basic_stringIcSt11char_traitsIcESaIcEEEESaIS7_EE8max_sizeEv>
    8137:	48 3b 45 e0          	cmp    -0x20(%rbp),%rax
    813b:	73 0e                	jae    814b <_ZNKSt6vectorISt4pairIiNSt7__cxx1112basic_stringIcSt11char_traitsIcESaIcEEEESaIS7_EE12_M_check_lenEmPKc+0xe1>
    813d:	48 8b 45 c8          	mov    -0x38(%rbp),%rax
    8141:	48 89 c7             	mov    %rax,%rdi
    8144:	e8 d5 01 00 00       	call   831e <_ZNKSt6vectorISt4pairIiNSt7__cxx1112basic_stringIcSt11char_traitsIcESaIcEEEESaIS7_EE8max_sizeEv>
    8149:	eb 04                	jmp    814f <_ZNKSt6vectorISt4pairIiNSt7__cxx1112basic_stringIcSt11char_traitsIcESaIcEEEESaIS7_EE12_M_check_lenEmPKc+0xe5>
    814b:	48 8b 45 e0          	mov    -0x20(%rbp),%rax
    814f:	48 8b 55 e8          	mov    -0x18(%rbp),%rdx
    8153:	64 48 2b 14 25 28 00 	sub    %fs:0x28,%rdx
    815a:	00 00 
    815c:	74 05                	je     8163 <_ZNKSt6vectorISt4pairIiNSt7__cxx1112basic_stringIcSt11char_traitsIcESaIcEEEESaIS7_EE12_M_check_lenEmPKc+0xf9>
    815e:	e8 fd af ff ff       	call   3160 <__stack_chk_fail@plt>
    8163:	48 8b 5d f8          	mov    -0x8(%rbp),%rbx
    8167:	c9                   	leave
    8168:	c3                   	ret
    8169:	90                   	nop

000000000000816a <_ZNSt12_Vector_baseISt4pairIiNSt7__cxx1112basic_stringIcSt11char_traitsIcESaIcEEEESaIS7_EE11_M_allocateEm>:
    816a:	55                   	push   %rbp
    816b:	48 89 e5             	mov    %rsp,%rbp
    816e:	48 83 ec 20          	sub    $0x20,%rsp
    8172:	48 89 7d e8          	mov    %rdi,-0x18(%rbp)
    8176:	48 89 75 e0          	mov    %rsi,-0x20(%rbp)
    817a:	48 83 7d e0 00       	cmpq   $0x0,-0x20(%rbp)
    817f:	74 2b                	je     81ac <_ZNSt12_Vector_baseISt4pairIiNSt7__cxx1112basic_stringIcSt11char_traitsIcESaIcEEEESaIS7_EE11_M_allocateEm+0x42>
    8181:	48 8b 45 e8          	mov    -0x18(%rbp),%rax
    8185:	48 89 45 f0          	mov    %rax,-0x10(%rbp)
    8189:	48 8b 45 e0          	mov    -0x20(%rbp),%rax
    818d:	48 89 45 f8          	mov    %rax,-0x8(%rbp)
    8191:	48 8b 4d f8          	mov    -0x8(%rbp),%rcx
    8195:	48 8b 45 f0          	mov    -0x10(%rbp),%rax
    8199:	ba 00 00 00 00       	mov    $0x0,%edx
    819e:	48 89 ce             	mov    %rcx,%rsi
    81a1:	48 89 c7             	mov    %rax,%rdi
    81a4:	e8 49 04 00 00       	call   85f2 <_ZNSt15__new_allocatorISt4pairIiNSt7__cxx1112basic_stringIcSt11char_traitsIcESaIcEEEEE8allocateEmPKv>
    81a9:	90                   	nop
    81aa:	eb 05                	jmp    81b1 <_ZNSt12_Vector_baseISt4pairIiNSt7__cxx1112basic_stringIcSt11char_traitsIcESaIcEEEESaIS7_EE11_M_allocateEm+0x47>
    81ac:	b8 00 00 00 00       	mov    $0x0,%eax
    81b1:	c9                   	leave
    81b2:	c3                   	ret
    81b3:	90                   	nop

00000000000081b4 <_ZNSt6vectorISt4pairIiNSt7__cxx1112basic_stringIcSt11char_traitsIcESaIcEEEESaIS7_EE12_Guard_allocC1EPS7_mRSt12_Vector_baseIS7_S8_E>:
    81b4:	55                   	push   %rbp
    81b5:	48 89 e5             	mov    %rsp,%rbp
    81b8:	48 89 7d f8          	mov    %rdi,-0x8(%rbp)
    81bc:	48 89 75 f0          	mov    %rsi,-0x10(%rbp)
    81c0:	48 89 55 e8          	mov    %rdx,-0x18(%rbp)
    81c4:	48 89 4d e0          	mov    %rcx,-0x20(%rbp)
    81c8:	48 8b 45 f8          	mov    -0x8(%rbp),%rax
    81cc:	48 8b 55 f0          	mov    -0x10(%rbp),%rdx
    81d0:	48 89 10             	mov    %rdx,(%rax)
    81d3:	48 8b 45 f8          	mov    -0x8(%rbp),%rax
    81d7:	48 8b 55 e8          	mov    -0x18(%rbp),%rdx
    81db:	48 89 50 08          	mov    %rdx,0x8(%rax)
    81df:	48 8b 45 f8          	mov    -0x8(%rbp),%rax
    81e3:	48 8b 55 e0          	mov    -0x20(%rbp),%rdx
    81e7:	48 89 50 10          	mov    %rdx,0x10(%rax)
    81eb:	90                   	nop
    81ec:	5d                   	pop    %rbp
    81ed:	c3                   	ret

00000000000081ee <_ZNSt6vectorISt4pairIiNSt7__cxx1112basic_stringIcSt11char_traitsIcESaIcEEEESaIS7_EE12_Guard_allocD1Ev>:
    81ee:	55                   	push   %rbp
    81ef:	48 89 e5             	mov    %rsp,%rbp
    81f2:	48 83 ec 10          	sub    $0x10,%rsp
    81f6:	48 89 7d f8          	mov    %rdi,-0x8(%rbp)
    81fa:	48 8b 45 f8          	mov    -0x8(%rbp),%rax
    81fe:	48 8b 00             	mov    (%rax),%rax
    8201:	48 85 c0             	test   %rax,%rax
    8204:	74 22                	je     8228 <_ZNSt6vectorISt4pairIiNSt7__cxx1112basic_stringIcSt11char_traitsIcESaIcEEEESaIS7_EE12_Guard_allocD1Ev+0x3a>
    8206:	48 8b 45 f8          	mov    -0x8(%rbp),%rax
    820a:	48 8b 40 10          	mov    0x10(%rax),%rax
    820e:	48 8b 55 f8          	mov    -0x8(%rbp),%rdx
    8212:	48 8b 52 08          	mov    0x8(%rdx),%rdx
    8216:	48 8b 4d f8          	mov    -0x8(%rbp),%rcx
    821a:	48 8b 09             	mov    (%rcx),%rcx
    821d:	48 89 ce             	mov    %rcx,%rsi
    8220:	48 89 c7             	mov    %rax,%rdi
    8223:	e8 6e cf ff ff       	call   5196 <_ZNSt12_Vector_baseISt4pairIiNSt7__cxx1112basic_stringIcSt11char_traitsIcESaIcEEEESaIS7_EE13_M_deallocateEPS7_m>
    8228:	90                   	nop
    8229:	c9                   	leave
    822a:	c3                   	ret

000000000000822b <_ZNSt6vectorISt4pairIiNSt7__cxx1112basic_stringIcSt11char_traitsIcESaIcEEEESaIS7_EE11_S_relocateEPS7_SA_SA_RS8_>:
    822b:	55                   	push   %rbp
    822c:	48 89 e5             	mov    %rsp,%rbp
    822f:	48 83 ec 20          	sub    $0x20,%rsp
    8233:	48 89 7d f8          	mov    %rdi,-0x8(%rbp)
    8237:	48 89 75 f0          	mov    %rsi,-0x10(%rbp)
    823b:	48 89 55 e8          	mov    %rdx,-0x18(%rbp)
    823f:	48 89 4d e0          	mov    %rcx,-0x20(%rbp)
    8243:	48 8b 4d e0          	mov    -0x20(%rbp),%rcx
    8247:	48 8b 55 e8          	mov    -0x18(%rbp),%rdx
    824b:	48 8b 75 f0          	mov    -0x10(%rbp),%rsi
    824f:	48 8b 45 f8          	mov    -0x8(%rbp),%rax
    8253:	48 89 c7             	mov    %rax,%rdi
    8256:	e8 20 01 00 00       	call   837b <_ZSt12__relocate_aIPSt4pairIiNSt7__cxx1112basic_stringIcSt11char_traitsIcESaIcEEEES8_SaIS7_EET0_T_SB_SA_RT1_>
    825b:	c9                   	leave
    825c:	c3                   	ret
    825d:	90                   	nop

000000000000825e <_ZNKSt6vectorISt4pairIiNSt7__cxx1112basic_stringIcSt11char_traitsIcESaIcEEEESaIS7_EE5emptyEv>:
    825e:	55                   	push   %rbp
    825f:	48 89 e5             	mov    %rsp,%rbp
    8262:	48 83 ec 40          	sub    $0x40,%rsp
    8266:	48 89 7d c8          	mov    %rdi,-0x38(%rbp)
    826a:	64 48 8b 04 25 28 00 	mov    %fs:0x28,%rax
    8271:	00 00 
    8273:	48 89 45 f8          	mov    %rax,-0x8(%rbp)
    8277:	31 c0                	xor    %eax,%eax
    8279:	48 8b 45 c8          	mov    -0x38(%rbp),%rax
    827d:	48 89 c7             	mov    %rax,%rdi
    8280:	e8 8b 01 00 00       	call   8410 <_ZNKSt6vectorISt4pairIiNSt7__cxx1112basic_stringIcSt11char_traitsIcESaIcEEEESaIS7_EE3endEv>
    8285:	48 89 45 e0          	mov    %rax,-0x20(%rbp)
    8289:	48 8b 45 c8          	mov    -0x38(%rbp),%rax
    828d:	48 89 c7             	mov    %rax,%rdi
    8290:	e8 31 01 00 00       	call   83c6 <_ZNKSt6vectorISt4pairIiNSt7__cxx1112basic_stringIcSt11char_traitsIcESaIcEEEESaIS7_EE5beginEv>
    8295:	48 89 45 d8          	mov    %rax,-0x28(%rbp)
    8299:	48 8d 45 d8          	lea    -0x28(%rbp),%rax
    829d:	48 89 45 e8          	mov    %rax,-0x18(%rbp)
    82a1:	48 8b 45 e8          	mov    -0x18(%rbp),%rax
    82a5:	48 8b 10             	mov    (%rax),%rdx
    82a8:	48 8d 45 e0          	lea    -0x20(%rbp),%rax
    82ac:	48 89 45 f0          	mov    %rax,-0x10(%rbp)
    82b0:	48 8b 45 f0          	mov    -0x10(%rbp),%rax
    82b4:	48 8b 00             	mov    (%rax),%rax
    82b7:	48 39 c2             	cmp    %rax,%rdx
    82ba:	0f 94 c0             	sete   %al
    82bd:	48 8b 55 f8          	mov    -0x8(%rbp),%rdx
    82c1:	64 48 2b 14 25 28 00 	sub    %fs:0x28,%rdx
    82c8:	00 00 
    82ca:	74 05                	je     82d1 <_ZNKSt6vectorISt4pairIiNSt7__cxx1112basic_stringIcSt11char_traitsIcESaIcEEEESaIS7_EE5emptyEv+0x73>
    82cc:	e8 8f ae ff ff       	call   3160 <__stack_chk_fail@plt>
    82d1:	c9                   	leave
    82d2:	c3                   	ret
    82d3:	90                   	nop

00000000000082d4 <_ZNSt4pairIiNSt7__cxx1112basic_stringIcSt11char_traitsIcESaIcEEEEC1IiRS5_Lb1EEEOT_OT0_>:
    82d4:	55                   	push   %rbp
    82d5:	48 89 e5             	mov    %rsp,%rbp
    82d8:	48 83 ec 30          	sub    $0x30,%rsp
    82dc:	48 89 7d e8          	mov    %rdi,-0x18(%rbp)
    82e0:	48 89 75 e0          	mov    %rsi,-0x20(%rbp)
    82e4:	48 89 55 d8          	mov    %rdx,-0x28(%rbp)
    82e8:	48 8b 45 e0          	mov    -0x20(%rbp),%rax
    82ec:	48 89 45 f8          	mov    %rax,-0x8(%rbp)
    82f0:	48 8b 45 f8          	mov    -0x8(%rbp),%rax
    82f4:	8b 10                	mov    (%rax),%edx
    82f6:	48 8b 45 e8          	mov    -0x18(%rbp),%rax
    82fa:	89 10                	mov    %edx,(%rax)
    82fc:	48 8b 45 e8          	mov    -0x18(%rbp),%rax
    8300:	48 8d 50 08          	lea    0x8(%rax),%rdx
    8304:	48 8b 45 d8          	mov    -0x28(%rbp),%rax
    8308:	48 89 45 f0          	mov    %rax,-0x10(%rbp)
    830c:	48 8b 45 f0          	mov    -0x10(%rbp),%rax
    8310:	48 89 c6             	mov    %rax,%rsi
    8313:	48 89 d7             	mov    %rdx,%rdi
    8316:	e8 43 01 00 00       	call   845e <_ZNSt7__cxx1112basic_stringIcSt11char_traitsIcESaIcEEC1ERKS4_>
    831b:	90                   	nop
    831c:	c9                   	leave
    831d:	c3                   	ret

000000000000831e <_ZNKSt6vectorISt4pairIiNSt7__cxx1112basic_stringIcSt11char_traitsIcESaIcEEEESaIS7_EE8max_sizeEv>:
    831e:	55                   	push   %rbp
    831f:	48 89 e5             	mov    %rsp,%rbp
    8322:	48 83 ec 10          	sub    $0x10,%rsp
    8326:	48 89 7d f8          	mov    %rdi,-0x8(%rbp)
    832a:	48 8b 45 f8          	mov    -0x8(%rbp),%rax
    832e:	48 89 c7             	mov    %rax,%rdi
    8331:	e8 ae 02 00 00       	call   85e4 <_ZNKSt12_Vector_baseISt4pairIiNSt7__cxx1112basic_stringIcSt11char_traitsIcESaIcEEEESaIS7_EE19_M_get_Tp_allocatorEv>
    8336:	48 89 c7             	mov    %rax,%rdi
    8339:	e8 28 02 00 00       	call   8566 <_ZNSt6vectorISt4pairIiNSt7__cxx1112basic_stringIcSt11char_traitsIcESaIcEEEESaIS7_EE11_S_max_sizeERKS8_>
    833e:	c9                   	leave
    833f:	c3                   	ret

0000000000008340 <_ZNKSt6vectorISt4pairIiNSt7__cxx1112basic_stringIcSt11char_traitsIcESaIcEEEESaIS7_EE4sizeEv>:
    8340:	55                   	push   %rbp
    8341:	48 89 e5             	mov    %rsp,%rbp
    8344:	48 89 7d e8          	mov    %rdi,-0x18(%rbp)
    8348:	48 8b 45 e8          	mov    -0x18(%rbp),%rax
    834c:	48 8b 50 08          	mov    0x8(%rax),%rdx
    8350:	48 8b 45 e8          	mov    -0x18(%rbp),%rax
    8354:	48 8b 00             	mov    (%rax),%rax
    8357:	48 29 c2             	sub    %rax,%rdx
    835a:	48 c1 fa 03          	sar    $0x3,%rdx
    835e:	48 b8 cd cc cc cc cc 	movabs $0xcccccccccccccccd,%rax
    8365:	cc cc cc 
    8368:	48 0f af c2          	imul   %rdx,%rax
    836c:	48 89 45 f8          	mov    %rax,-0x8(%rbp)
    8370:	48 83 7d f8 00       	cmpq   $0x0,-0x8(%rbp)
    8375:	48 8b 45 f8          	mov    -0x8(%rbp),%rax
    8379:	5d                   	pop    %rbp
    837a:	c3                   	ret

000000000000837b <_ZSt12__relocate_aIPSt4pairIiNSt7__cxx1112basic_stringIcSt11char_traitsIcESaIcEEEES8_SaIS7_EET0_T_SB_SA_RT1_>:
    837b:	55                   	push   %rbp
    837c:	48 89 e5             	mov    %rsp,%rbp
    837f:	48 83 ec 40          	sub    $0x40,%rsp
    8383:	48 89 7d d8          	mov    %rdi,-0x28(%rbp)
    8387:	48 89 75 d0          	mov    %rsi,-0x30(%rbp)
    838b:	48 89 55 c8          	mov    %rdx,-0x38(%rbp)
    838f:	48 89 4d c0          	mov    %rcx,-0x40(%rbp)
    8393:	48 8b 45 c8          	mov    -0x38(%rbp),%rax
    8397:	48 89 45 f8          	mov    %rax,-0x8(%rbp)
    839b:	48 8b 55 f8          	mov    -0x8(%rbp),%rdx
    839f:	48 8b 45 d0          	mov    -0x30(%rbp),%rax
    83a3:	48 89 45 f0          	mov    %rax,-0x10(%rbp)
    83a7:	48 8b 75 f0          	mov    -0x10(%rbp),%rsi
    83ab:	48 8b 45 d8          	mov    -0x28(%rbp),%rax
    83af:	48 89 45 e8          	mov    %rax,-0x18(%rbp)
    83b3:	48 8b 45 e8          	mov    -0x18(%rbp),%rax
    83b7:	48 8b 4d c0          	mov    -0x40(%rbp),%rcx
    83bb:	48 89 c7             	mov    %rax,%rdi
    83be:	e8 a0 02 00 00       	call   8663 <_ZSt14__relocate_a_1IPSt4pairIiNSt7__cxx1112basic_stringIcSt11char_traitsIcESaIcEEEES8_SaIS7_EET0_T_SB_SA_RT1_>
    83c3:	c9                   	leave
    83c4:	c3                   	ret
    83c5:	90                   	nop

00000000000083c6 <_ZNKSt6vectorISt4pairIiNSt7__cxx1112basic_stringIcSt11char_traitsIcESaIcEEEESaIS7_EE5beginEv>:
    83c6:	55                   	push   %rbp
    83c7:	48 89 e5             	mov    %rsp,%rbp
    83ca:	48 83 ec 30          	sub    $0x30,%rsp
    83ce:	48 89 7d d8          	mov    %rdi,-0x28(%rbp)
    83d2:	64 48 8b 04 25 28 00 	mov    %fs:0x28,%rax
    83d9:	00 00 
    83db:	48 89 45 f8          	mov    %rax,-0x8(%rbp)
    83df:	31 c0                	xor    %eax,%eax
    83e1:	48 8b 45 d8          	mov    -0x28(%rbp),%rax
    83e5:	48 89 45 f0          	mov    %rax,-0x10(%rbp)
    83e9:	48 8b 45 f0          	mov    -0x10(%rbp),%rax
    83ed:	48 8b 00             	mov    (%rax),%rax
    83f0:	48 89 45 e8          	mov    %rax,-0x18(%rbp)
    83f4:	90                   	nop
    83f5:	48 8b 45 e8          	mov    -0x18(%rbp),%rax
    83f9:	48 8b 55 f8          	mov    -0x8(%rbp),%rdx
    83fd:	64 48 2b 14 25 28 00 	sub    %fs:0x28,%rdx
    8404:	00 00 
    8406:	74 05                	je     840d <_ZNKSt6vectorISt4pairIiNSt7__cxx1112basic_stringIcSt11char_traitsIcESaIcEEEESaIS7_EE5beginEv+0x47>
    8408:	e8 53 ad ff ff       	call   3160 <__stack_chk_fail@plt>
    840d:	c9                   	leave
    840e:	c3                   	ret
    840f:	90                   	nop

0000000000008410 <_ZNKSt6vectorISt4pairIiNSt7__cxx1112basic_stringIcSt11char_traitsIcESaIcEEEESaIS7_EE3endEv>:
    8410:	55                   	push   %rbp
    8411:	48 89 e5             	mov    %rsp,%rbp
    8414:	48 83 ec 30          	sub    $0x30,%rsp
    8418:	48 89 7d d8          	mov    %rdi,-0x28(%rbp)
    841c:	64 48 8b 04 25 28 00 	mov    %fs:0x28,%rax
    8423:	00 00 
    8425:	48 89 45 f8          	mov    %rax,-0x8(%rbp)
    8429:	31 c0                	xor    %eax,%eax
    842b:	48 8b 45 d8          	mov    -0x28(%rbp),%rax
    842f:	48 83 c0 08          	add    $0x8,%rax
    8433:	48 89 45 f0          	mov    %rax,-0x10(%rbp)
    8437:	48 8b 45 f0          	mov    -0x10(%rbp),%rax
    843b:	48 8b 00             	mov    (%rax),%rax
    843e:	48 89 45 e8          	mov    %rax,-0x18(%rbp)
    8442:	90                   	nop
    8443:	48 8b 45 e8          	mov    -0x18(%rbp),%rax
    8447:	48 8b 55 f8          	mov    -0x8(%rbp),%rdx
    844b:	64 48 2b 14 25 28 00 	sub    %fs:0x28,%rdx
    8452:	00 00 
    8454:	74 05                	je     845b <_ZNKSt6vectorISt4pairIiNSt7__cxx1112basic_stringIcSt11char_traitsIcESaIcEEEESaIS7_EE3endEv+0x4b>
    8456:	e8 05 ad ff ff       	call   3160 <__stack_chk_fail@plt>
    845b:	c9                   	leave
    845c:	c3                   	ret
    845d:	90                   	nop

000000000000845e <_ZNSt7__cxx1112basic_stringIcSt11char_traitsIcESaIcEEC1ERKS4_>:
    845e:	55                   	push   %rbp
    845f:	48 89 e5             	mov    %rsp,%rbp
    8462:	53                   	push   %rbx
    8463:	48 83 ec 58          	sub    $0x58,%rsp
    8467:	48 89 7d a8          	mov    %rdi,-0x58(%rbp)
    846b:	48 89 75 a0          	mov    %rsi,-0x60(%rbp)
    846f:	64 48 8b 04 25 28 00 	mov    %fs:0x28,%rax
    8476:	00 00 
    8478:	48 89 45 e8          	mov    %rax,-0x18(%rbp)
    847c:	31 c0                	xor    %eax,%eax
    847e:	48 8b 5d a8          	mov    -0x58(%rbp),%rbx
    8482:	48 8b 45 a0          	mov    -0x60(%rbp),%rax
    8486:	48 89 c7             	mov    %rax,%rdi
    8489:	e8 30 cb ff ff       	call   4fbe <_ZNKSt7__cxx1112basic_stringIcSt11char_traitsIcESaIcEE16_M_get_allocatorEv>
    848e:	48 89 45 b8          	mov    %rax,-0x48(%rbp)
    8492:	48 8d 45 b7          	lea    -0x49(%rbp),%rax
    8496:	48 8b 55 b8          	mov    -0x48(%rbp),%rdx
    849a:	48 89 55 c0          	mov    %rdx,-0x40(%rbp)
    849e:	48 89 45 c8          	mov    %rax,-0x38(%rbp)
    84a2:	48 8b 45 c0          	mov    -0x40(%rbp),%rax
    84a6:	48 89 45 d0          	mov    %rax,-0x30(%rbp)
    84aa:	48 8b 45 c8          	mov    -0x38(%rbp),%rax
    84ae:	48 89 45 d8          	mov    %rax,-0x28(%rbp)
    84b2:	48 8b 45 d0          	mov    -0x30(%rbp),%rax
    84b6:	48 89 45 e0          	mov    %rax,-0x20(%rbp)
    84ba:	90                   	nop
    84bb:	90                   	nop
    84bc:	90                   	nop
    84bd:	90                   	nop
    84be:	48 8b 45 a8          	mov    -0x58(%rbp),%rax
    84c2:	48 89 c7             	mov    %rax,%rdi
    84c5:	e8 e6 c0 ff ff       	call   45b0 <_ZNSt7__cxx1112basic_stringIcSt11char_traitsIcESaIcEE13_M_local_dataEv>
    84ca:	48 89 c1             	mov    %rax,%rcx
    84cd:	48 8d 45 b7          	lea    -0x49(%rbp),%rax
    84d1:	48 89 c2             	mov    %rax,%rdx
    84d4:	48 89 ce             	mov    %rcx,%rsi
    84d7:	48 89 df             	mov    %rbx,%rdi
    84da:	e8 ef c0 ff ff       	call   45ce <_ZNSt7__cxx1112basic_stringIcSt11char_traitsIcESaIcEE12_Alloc_hiderC1EPcOS3_>
    84df:	48 8d 45 b7          	lea    -0x49(%rbp),%rax
    84e3:	48 89 c7             	mov    %rax,%rdi
    84e6:	e8 a3 c3 ff ff       	call   488e <_ZNSt15__new_allocatorIcED1Ev>
    84eb:	90                   	nop
    84ec:	48 8b 45 a0          	mov    -0x60(%rbp),%rax
    84f0:	48 89 c7             	mov    %rax,%rdi
    84f3:	e8 dc c2 ff ff       	call   47d4 <_ZNKSt7__cxx1112basic_stringIcSt11char_traitsIcESaIcEE6lengthEv>
    84f8:	48 89 c3             	mov    %rax,%rbx
    84fb:	48 8b 45 a0          	mov    -0x60(%rbp),%rax
    84ff:	48 89 c7             	mov    %rax,%rdi
    8502:	e8 97 c0 ff ff       	call   459e <_ZNKSt7__cxx1112basic_stringIcSt11char_traitsIcESaIcEE7_M_dataEv>
    8507:	48 89 c1             	mov    %rax,%rcx
    850a:	48 8b 45 a8          	mov    -0x58(%rbp),%rax
    850e:	48 89 da             	mov    %rbx,%rdx
    8511:	48 89 ce             	mov    %rcx,%rsi
    8514:	48 89 c7             	mov    %rax,%rdi
    8517:	e8 aa 01 00 00       	call   86c6 <_ZNSt7__cxx1112basic_stringIcSt11char_traitsIcESaIcEE12_M_constructILb1EEEvPKcm>
    851c:	eb 2e                	jmp    854c <_ZNSt7__cxx1112basic_stringIcSt11char_traitsIcESaIcEEC1ERKS4_+0xee>
    851e:	48 89 c3             	mov    %rax,%rbx
    8521:	48 8b 45 a8          	mov    -0x58(%rbp),%rax
    8525:	48 89 c7             	mov    %rax,%rdi
    8528:	e8 5b bb ff ff       	call   4088 <_ZNSt7__cxx1112basic_stringIcSt11char_traitsIcESaIcEE12_Alloc_hiderD1Ev>
    852d:	48 89 d8             	mov    %rbx,%rax
    8530:	48 8b 55 e8          	mov    -0x18(%rbp),%rdx
    8534:	64 48 2b 14 25 28 00 	sub    %fs:0x28,%rdx
    853b:	00 00 
    853d:	74 05                	je     8544 <_ZNSt7__cxx1112basic_stringIcSt11char_traitsIcESaIcEEC1ERKS4_+0xe6>
    853f:	e8 1c ac ff ff       	call   3160 <__stack_chk_fail@plt>
    8544:	48 89 c7             	mov    %rax,%rdi
    8547:	e8 34 ad ff ff       	call   3280 <_Unwind_Resume@plt>
    854c:	48 8b 45 e8          	mov    -0x18(%rbp),%rax
    8550:	64 48 2b 04 25 28 00 	sub    %fs:0x28,%rax
    8557:	00 00 
    8559:	74 05                	je     8560 <_ZNSt7__cxx1112basic_stringIcSt11char_traitsIcESaIcEEC1ERKS4_+0x102>
    855b:	e8 00 ac ff ff       	call   3160 <__stack_chk_fail@plt>
    8560:	48 8b 5d f8          	mov    -0x8(%rbp),%rbx
    8564:	c9                   	leave
    8565:	c3                   	ret

0000000000008566 <_ZNSt6vectorISt4pairIiNSt7__cxx1112basic_stringIcSt11char_traitsIcESaIcEEEESaIS7_EE11_S_max_sizeERKS8_>:
    8566:	55                   	push   %rbp
    8567:	48 89 e5             	mov    %rsp,%rbp
    856a:	48 83 ec 40          	sub    $0x40,%rsp
    856e:	48 89 7d c8          	mov    %rdi,-0x38(%rbp)
    8572:	64 48 8b 04 25 28 00 	mov    %fs:0x28,%rax
    8579:	00 00 
    857b:	48 89 45 f8          	mov    %rax,-0x8(%rbp)
    857f:	31 c0                	xor    %eax,%eax
    8581:	48 b8 33 33 33 33 33 	movabs $0x333333333333333,%rax
    8588:	33 33 03 
    858b:	48 89 45 d0          	mov    %rax,-0x30(%rbp)
    858f:	48 8b 45 c8          	mov    -0x38(%rbp),%rax
    8593:	48 89 45 e0          	mov    %rax,-0x20(%rbp)
    8597:	48 8b 45 e0          	mov    -0x20(%rbp),%rax
    859b:	48 89 45 e8          	mov    %rax,-0x18(%rbp)
    859f:	48 8b 45 e8          	mov    -0x18(%rbp),%rax
    85a3:	48 89 45 f0          	mov    %rax,-0x10(%rbp)
    85a7:	48 b8 33 33 33 33 33 	movabs $0x333333333333333,%rax
    85ae:	33 33 03 
    85b1:	90                   	nop
    85b2:	90                   	nop
    85b3:	48 89 45 d8          	mov    %rax,-0x28(%rbp)
    85b7:	48 8d 55 d8          	lea    -0x28(%rbp),%rdx
    85bb:	48 8d 45 d0          	lea    -0x30(%rbp),%rax
    85bf:	48 89 d6             	mov    %rdx,%rsi
    85c2:	48 89 c7             	mov    %rax,%rdi
    85c5:	e8 02 c9 ff ff       	call   4ecc <_ZSt3minImERKT_S2_S2_>
    85ca:	48 8b 00             	mov    (%rax),%rax
    85cd:	48 8b 55 f8          	mov    -0x8(%rbp),%rdx
    85d1:	64 48 2b 14 25 28 00 	sub    %fs:0x28,%rdx
    85d8:	00 00 
    85da:	74 05                	je     85e1 <_ZNSt6vectorISt4pairIiNSt7__cxx1112basic_stringIcSt11char_traitsIcESaIcEEEESaIS7_EE11_S_max_sizeERKS8_+0x7b>
    85dc:	e8 7f ab ff ff       	call   3160 <__stack_chk_fail@plt>
    85e1:	c9                   	leave
    85e2:	c3                   	ret
    85e3:	90                   	nop

00000000000085e4 <_ZNKSt12_Vector_baseISt4pairIiNSt7__cxx1112basic_stringIcSt11char_traitsIcESaIcEEEESaIS7_EE19_M_get_Tp_allocatorEv>:
    85e4:	55                   	push   %rbp
    85e5:	48 89 e5             	mov    %rsp,%rbp
    85e8:	48 89 7d f8          	mov    %rdi,-0x8(%rbp)
    85ec:	48 8b 45 f8          	mov    -0x8(%rbp),%rax
    85f0:	5d                   	pop    %rbp
    85f1:	c3                   	ret

00000000000085f2 <_ZNSt15__new_allocatorISt4pairIiNSt7__cxx1112basic_stringIcSt11char_traitsIcESaIcEEEEE8allocateEmPKv>:
    85f2:	55                   	push   %rbp
    85f3:	48 89 e5             	mov    %rsp,%rbp
    85f6:	48 83 ec 30          	sub    $0x30,%rsp
    85fa:	48 89 7d e8          	mov    %rdi,-0x18(%rbp)
    85fe:	48 89 75 e0          	mov    %rsi,-0x20(%rbp)
    8602:	48 89 55 d8          	mov    %rdx,-0x28(%rbp)
    8606:	48 8b 45 e8          	mov    -0x18(%rbp),%rax
    860a:	48 89 45 f8          	mov    %rax,-0x8(%rbp)
    860e:	48 b8 33 33 33 33 33 	movabs $0x333333333333333,%rax
    8615:	33 33 03 
    8618:	48 3b 45 e0          	cmp    -0x20(%rbp),%rax
    861c:	0f 92 c0             	setb   %al
    861f:	0f b6 c0             	movzbl %al,%eax
    8622:	48 85 c0             	test   %rax,%rax
    8625:	0f 95 c0             	setne  %al
    8628:	84 c0                	test   %al,%al
    862a:	74 1a                	je     8646 <_ZNSt15__new_allocatorISt4pairIiNSt7__cxx1112basic_stringIcSt11char_traitsIcESaIcEEEEE8allocateEmPKv+0x54>
    862c:	48 b8 66 66 66 66 66 	movabs $0x666666666666666,%rax
    8633:	66 66 06 
    8636:	48 3b 45 e0          	cmp    -0x20(%rbp),%rax
    863a:	73 05                	jae    8641 <_ZNSt15__new_allocatorISt4pairIiNSt7__cxx1112basic_stringIcSt11char_traitsIcESaIcEEEEE8allocateEmPKv+0x4f>
    863c:	e8 af ab ff ff       	call   31f0 <_ZSt28__throw_bad_array_new_lengthv@plt>
    8641:	e8 4a aa ff ff       	call   3090 <_ZSt17__throw_bad_allocv@plt>
    8646:	48 8b 55 e0          	mov    -0x20(%rbp),%rdx
    864a:	48 89 d0             	mov    %rdx,%rax
    864d:	48 c1 e0 02          	shl    $0x2,%rax
    8651:	48 01 d0             	add    %rdx,%rax
    8654:	48 c1 e0 03          	shl    $0x3,%rax
    8658:	48 89 c7             	mov    %rax,%rdi
    865b:	e8 90 aa ff ff       	call   30f0 <_Znwm@plt>
    8660:	90                   	nop
    8661:	c9                   	leave
    8662:	c3                   	ret

0000000000008663 <_ZSt14__relocate_a_1IPSt4pairIiNSt7__cxx1112basic_stringIcSt11char_traitsIcESaIcEEEES8_SaIS7_EET0_T_SB_SA_RT1_>:
    8663:	55                   	push   %rbp
    8664:	48 89 e5             	mov    %rsp,%rbp
    8667:	48 83 ec 40          	sub    $0x40,%rsp
    866b:	48 89 7d d8          	mov    %rdi,-0x28(%rbp)
    866f:	48 89 75 d0          	mov    %rsi,-0x30(%rbp)
    8673:	48 89 55 c8          	mov    %rdx,-0x38(%rbp)
    8677:	48 89 4d c0          	mov    %rcx,-0x40(%rbp)
    867b:	48 8b 45 c8          	mov    -0x38(%rbp),%rax
    867f:	48 89 45 e8          	mov    %rax,-0x18(%rbp)
    8683:	eb 31                	jmp    86b6 <_ZSt14__relocate_a_1IPSt4pairIiNSt7__cxx1112basic_stringIcSt11char_traitsIcESaIcEEEES8_SaIS7_EET0_T_SB_SA_RT1_+0x53>
    8685:	48 8b 45 d8          	mov    -0x28(%rbp),%rax
    8689:	48 89 45 f8          	mov    %rax,-0x8(%rbp)
    868d:	48 8b 4d f8          	mov    -0x8(%rbp),%rcx
    8691:	48 8b 45 e8          	mov    -0x18(%rbp),%rax
    8695:	48 89 45 f0          	mov    %rax,-0x10(%rbp)
    8699:	48 8b 45 f0          	mov    -0x10(%rbp),%rax
    869d:	48 8b 55 c0          	mov    -0x40(%rbp),%rdx
    86a1:	48 89 ce             	mov    %rcx,%rsi
    86a4:	48 89 c7             	mov    %rax,%rdi
    86a7:	e8 e7 00 00 00       	call   8793 <_ZSt19__relocate_object_aISt4pairIiNSt7__cxx1112basic_stringIcSt11char_traitsIcESaIcEEEES7_SaIS7_EEvPT_PT0_RT1_>
    86ac:	48 83 45 d8 28       	addq   $0x28,-0x28(%rbp)
    86b1:	48 83 45 e8 28       	addq   $0x28,-0x18(%rbp)
    86b6:	48 8b 45 d8          	mov    -0x28(%rbp),%rax
    86ba:	48 3b 45 d0          	cmp    -0x30(%rbp),%rax
    86be:	75 c5                	jne    8685 <_ZSt14__relocate_a_1IPSt4pairIiNSt7__cxx1112basic_stringIcSt11char_traitsIcESaIcEEEES8_SaIS7_EET0_T_SB_SA_RT1_+0x22>
    86c0:	48 8b 45 e8          	mov    -0x18(%rbp),%rax
    86c4:	c9                   	leave
    86c5:	c3                   	ret

00000000000086c6 <_ZNSt7__cxx1112basic_stringIcSt11char_traitsIcESaIcEE12_M_constructILb1EEEvPKcm>:
    86c6:	55                   	push   %rbp
    86c7:	48 89 e5             	mov    %rsp,%rbp
    86ca:	53                   	push   %rbx
    86cb:	48 83 ec 48          	sub    $0x48,%rsp
    86cf:	48 89 7d c8          	mov    %rdi,-0x38(%rbp)
    86d3:	48 89 75 c0          	mov    %rsi,-0x40(%rbp)
    86d7:	48 89 55 b8          	mov    %rdx,-0x48(%rbp)
    86db:	64 48 8b 04 25 28 00 	mov    %fs:0x28,%rax
    86e2:	00 00 
    86e4:	48 89 45 e8          	mov    %rax,-0x18(%rbp)
    86e8:	31 c0                	xor    %eax,%eax
    86ea:	48 8b 45 b8          	mov    -0x48(%rbp),%rax
    86ee:	48 83 f8 0f          	cmp    $0xf,%rax
    86f2:	76 3f                	jbe    8733 <_ZNSt7__cxx1112basic_stringIcSt11char_traitsIcESaIcEE12_M_constructILb1EEEvPKcm+0x6d>
    86f4:	48 8d 4d b8          	lea    -0x48(%rbp),%rcx
    86f8:	48 8b 45 c8          	mov    -0x38(%rbp),%rax
    86fc:	ba 00 00 00 00       	mov    $0x0,%edx
    8701:	48 89 ce             	mov    %rcx,%rsi
    8704:	48 89 c7             	mov    %rax,%rdi
    8707:	e8 90 c6 ff ff       	call   4d9c <_ZNSt7__cxx1112basic_stringIcSt11char_traitsIcESaIcEE9_M_createERmm>
    870c:	48 89 c2             	mov    %rax,%rdx
    870f:	48 8b 45 c8          	mov    -0x38(%rbp),%rax
    8713:	48 89 d6             	mov    %rdx,%rsi
    8716:	48 89 c7             	mov    %rax,%rdi
    8719:	e8 d0 c0 ff ff       	call   47ee <_ZNSt7__cxx1112basic_stringIcSt11char_traitsIcESaIcEE7_M_dataEPc>
    871e:	48 8b 55 b8          	mov    -0x48(%rbp),%rdx
    8722:	48 8b 45 c8          	mov    -0x38(%rbp),%rax
    8726:	48 89 d6             	mov    %rdx,%rsi
    8729:	48 89 c7             	mov    %rax,%rdi
    872c:	e8 d7 c0 ff ff       	call   4808 <_ZNSt7__cxx1112basic_stringIcSt11char_traitsIcESaIcEE11_M_capacityEm>
    8731:	eb 09                	jmp    873c <_ZNSt7__cxx1112basic_stringIcSt11char_traitsIcESaIcEE12_M_constructILb1EEEvPKcm+0x76>
    8733:	48 8b 45 c8          	mov    -0x38(%rbp),%rax
    8737:	48 89 45 e0          	mov    %rax,-0x20(%rbp)
    873b:	90                   	nop
    873c:	48 8b 45 b8          	mov    -0x48(%rbp),%rax
    8740:	48 8d 58 01          	lea    0x1(%rax),%rbx
    8744:	48 8b 45 c8          	mov    -0x38(%rbp),%rax
    8748:	48 89 c7             	mov    %rax,%rdi
    874b:	e8 4e be ff ff       	call   459e <_ZNKSt7__cxx1112basic_stringIcSt11char_traitsIcESaIcEE7_M_dataEv>
    8750:	48 89 c1             	mov    %rax,%rcx
    8753:	48 8b 45 c0          	mov    -0x40(%rbp),%rax
    8757:	48 89 da             	mov    %rbx,%rdx
    875a:	48 89 c6             	mov    %rax,%rsi
    875d:	48 89 cf             	mov    %rcx,%rdi
    8760:	e8 ff c6 ff ff       	call   4e64 <_ZNSt7__cxx1112basic_stringIcSt11char_traitsIcESaIcEE7_S_copyEPcPKcm>
    8765:	48 8b 55 b8          	mov    -0x48(%rbp),%rdx
    8769:	48 8b 45 c8          	mov    -0x38(%rbp),%rax
    876d:	48 89 d6             	mov    %rdx,%rsi
    8770:	48 89 c7             	mov    %rax,%rdi
    8773:	e8 ac c0 ff ff       	call   4824 <_ZNSt7__cxx1112basic_stringIcSt11char_traitsIcESaIcEE9_M_lengthEm>
    8778:	90                   	nop
    8779:	48 8b 45 e8          	mov    -0x18(%rbp),%rax
    877d:	64 48 2b 04 25 28 00 	sub    %fs:0x28,%rax
    8784:	00 00 
    8786:	74 05                	je     878d <_ZNSt7__cxx1112basic_stringIcSt11char_traitsIcESaIcEE12_M_constructILb1EEEvPKcm+0xc7>
    8788:	e8 d3 a9 ff ff       	call   3160 <__stack_chk_fail@plt>
    878d:	48 8b 5d f8          	mov    -0x8(%rbp),%rbx
    8791:	c9                   	leave
    8792:	c3                   	ret

0000000000008793 <_ZSt19__relocate_object_aISt4pairIiNSt7__cxx1112basic_stringIcSt11char_traitsIcESaIcEEEES7_SaIS7_EEvPT_PT0_RT1_>:
    8793:	55                   	push   %rbp
    8794:	48 89 e5             	mov    %rsp,%rbp
    8797:	41 54                	push   %r12
    8799:	53                   	push   %rbx
    879a:	48 81 ec 90 00 00 00 	sub    $0x90,%rsp
    87a1:	48 89 bd 78 ff ff ff 	mov    %rdi,-0x88(%rbp)
    87a8:	48 89 b5 70 ff ff ff 	mov    %rsi,-0x90(%rbp)
    87af:	48 89 95 68 ff ff ff 	mov    %rdx,-0x98(%rbp)
    87b6:	48 8b 85 70 ff ff ff 	mov    -0x90(%rbp),%rax
    87bd:	48 89 45 e8          	mov    %rax,-0x18(%rbp)
    87c1:	48 8b 45 e8          	mov    -0x18(%rbp),%rax
    87c5:	48 8b 95 68 ff ff ff 	mov    -0x98(%rbp),%rdx
    87cc:	48 89 55 a8          	mov    %rdx,-0x58(%rbp)
    87d0:	48 8b 95 78 ff ff ff 	mov    -0x88(%rbp),%rdx
    87d7:	48 89 55 b0          	mov    %rdx,-0x50(%rbp)
    87db:	48 89 45 b8          	mov    %rax,-0x48(%rbp)
    87df:	48 8b 45 b8          	mov    -0x48(%rbp),%rax
    87e3:	48 89 45 c0          	mov    %rax,-0x40(%rbp)
    87e7:	48 8b 45 c0          	mov    -0x40(%rbp),%rax
    87eb:	48 8b 55 b0          	mov    -0x50(%rbp),%rdx
    87ef:	48 89 55 c8          	mov    %rdx,-0x38(%rbp)
    87f3:	48 89 45 d0          	mov    %rax,-0x30(%rbp)
    87f7:	48 8b 45 a8          	mov    -0x58(%rbp),%rax
    87fb:	48 89 45 d8          	mov    %rax,-0x28(%rbp)
    87ff:	48 8b 5d c8          	mov    -0x38(%rbp),%rbx
    8803:	48 89 de             	mov    %rbx,%rsi
    8806:	bf 28 00 00 00       	mov    $0x28,%edi
    880b:	e8 18 d0 ff ff       	call   5828 <_ZnwmPv>
    8810:	49 89 c4             	mov    %rax,%r12
    8813:	48 8b 45 d0          	mov    -0x30(%rbp),%rax
    8817:	48 89 45 e0          	mov    %rax,-0x20(%rbp)
    881b:	48 8b 45 e0          	mov    -0x20(%rbp),%rax
    881f:	48 89 c6             	mov    %rax,%rsi
    8822:	4c 89 e7             	mov    %r12,%rdi
    8825:	e8 60 00 00 00       	call   888a <_ZNSt4pairIiNSt7__cxx1112basic_stringIcSt11char_traitsIcESaIcEEEEC1EOS6_>
    882a:	b8 00 00 00 00       	mov    $0x0,%eax
    882f:	84 c0                	test   %al,%al
    8831:	74 0b                	je     883e <_ZSt19__relocate_object_aISt4pairIiNSt7__cxx1112basic_stringIcSt11char_traitsIcESaIcEEEES7_SaIS7_EEvPT_PT0_RT1_+0xab>
    8833:	48 89 de             	mov    %rbx,%rsi
    8836:	4c 89 e7             	mov    %r12,%rdi
    8839:	e8 fc cf ff ff       	call   583a <_ZdlPvS_>
    883e:	90                   	nop
    883f:	90                   	nop
    8840:	48 8b 85 70 ff ff ff 	mov    -0x90(%rbp),%rax
    8847:	48 89 45 a0          	mov    %rax,-0x60(%rbp)
    884b:	48 8b 45 a0          	mov    -0x60(%rbp),%rax
    884f:	48 8b 95 68 ff ff ff 	mov    -0x98(%rbp),%rdx
    8856:	48 89 55 80          	mov    %rdx,-0x80(%rbp)
    885a:	48 89 45 88          	mov    %rax,-0x78(%rbp)
    885e:	48 8b 45 88          	mov    -0x78(%rbp),%rax
    8862:	48 89 45 90          	mov    %rax,-0x70(%rbp)
    8866:	48 8b 45 80          	mov    -0x80(%rbp),%rax
    886a:	48 89 45 98          	mov    %rax,-0x68(%rbp)
    886e:	48 8b 45 90          	mov    -0x70(%rbp),%rax
    8872:	48 89 c7             	mov    %rax,%rdi
    8875:	e8 7a cb ff ff       	call   53f4 <_ZNSt4pairIiNSt7__cxx1112basic_stringIcSt11char_traitsIcESaIcEEEED1Ev>
    887a:	90                   	nop
    887b:	90                   	nop
    887c:	90                   	nop
    887d:	48 81 c4 90 00 00 00 	add    $0x90,%rsp
    8884:	5b                   	pop    %rbx
    8885:	41 5c                	pop    %r12
    8887:	5d                   	pop    %rbp
    8888:	c3                   	ret
    8889:	90                   	nop

000000000000888a <_ZNSt4pairIiNSt7__cxx1112basic_stringIcSt11char_traitsIcESaIcEEEEC1EOS6_>:
    888a:	55                   	push   %rbp
    888b:	48 89 e5             	mov    %rsp,%rbp
    888e:	48 83 ec 10          	sub    $0x10,%rsp
    8892:	48 89 7d f8          	mov    %rdi,-0x8(%rbp)
    8896:	48 89 75 f0          	mov    %rsi,-0x10(%rbp)
    889a:	48 8b 45 f0          	mov    -0x10(%rbp),%rax
    889e:	8b 10                	mov    (%rax),%edx
    88a0:	48 8b 45 f8          	mov    -0x8(%rbp),%rax
    88a4:	89 10                	mov    %edx,(%rax)
    88a6:	48 8b 45 f8          	mov    -0x8(%rbp),%rax
    88aa:	48 83 c0 08          	add    $0x8,%rax
    88ae:	48 8b 55 f0          	mov    -0x10(%rbp),%rdx
    88b2:	48 83 c2 08          	add    $0x8,%rdx
    88b6:	48 89 d6             	mov    %rdx,%rsi
    88b9:	48 89 c7             	mov    %rax,%rdi
    88bc:	e8 13 b8 ff ff       	call   40d4 <_ZNSt7__cxx1112basic_stringIcSt11char_traitsIcESaIcEEC1EOS4_>
    88c1:	90                   	nop
    88c2:	c9                   	leave
    88c3:	c3                   	ret

Disassembly of section .fini:

00000000000088c4 <_fini>:
    88c4:	f3 0f 1e fa          	endbr64
    88c8:	48 83 ec 08          	sub    $0x8,%rsp
    88cc:	48 83 c4 08          	add    $0x8,%rsp
    88d0:	c3                   	ret
